 PropertyPage

 Timestamp is 551ab674 (Tue Mar 31 23:00:04 2015)

 Preferred load address is 0000000140000000

 Start         Length     Name                   Class
 0001:00000000 0001fe53H .text                   CODE
 0001:0001fe60 00002ab8H .text$x                 CODE
 0001:00022920 0000176dH .text$yc                CODE
 0001:00024090 000010e7H .text$yd                CODE
 0002:00000000 00000109H .CRT$XCA                DATA
 0002:00000110 00000109H .CRT$XCAA               DATA
 0002:00000220 0000011cH .CRT$XCC                DATA
 0002:00000340 0000020cH .CRT$XCL                DATA
 0002:00000550 0000015bH .CRT$XCU                DATA
 0002:000006b0 00000109H .CRT$XCZ                DATA
 0002:000007c0 00000109H .CRT$XIA                DATA
 0002:000008d0 00000109H .CRT$XIAA               DATA
 0002:000009e0 00000109H .CRT$XIY                DATA
 0002:00000af0 00000109H .CRT$XIZ                DATA
 0002:00000c00 0002b2d7H .rdata                  DATA
 0002:0002bed8 00000154H .rdata$debug            DATA
 0002:0002c030 0000130fH .rdata$r                DATA
 0002:0002d340 00000109H .rtc$IAA                DATA
 0002:0002d450 000001e1H .rtc$IMZ                DATA
 0002:0002d638 00000109H .rtc$IZZ                DATA
 0002:0002d748 00000109H .rtc$TAA                DATA
 0002:0002d858 000001e1H .rtc$TMZ                DATA
 0002:0002da40 00000109H .rtc$TZZ                DATA
 0002:0002db50 000031b5H .xdata                  DATA
 0002:00030d08 00000164H .xdata$x                DATA
 0002:00030e70 00000109H ATL$__a                 DATA
 0002:00030f80 00000109H ATL$__z                 DATA
 0002:00031089 00000000H .edata                  DATA
 0003:00000000 000007b4H .data                   DATA
 0003:000007c0 00000b60H .bss                    DATA
 0004:00000000 00002418H .pdata                  DATA
 0005:00000000 000000dcH .idata$2                DATA
 0005:000000dc 00000014H .idata$3                DATA
 0005:000000f0 000018c8H .idata$4                DATA
 0005:000019b8 000018c8H .idata$5                DATA
 0005:00003280 00000defH .idata$6                DATA
 0006:00000000 00000743H .rsrc$01                DATA
 0006:00000750 00015503H .rsrc$02                DATA

  Address         Publics by Value              Rva+Base               Lib:Object

 0000:00000000       ___safe_se_handler_count   0000000000000000     <absolute>
 0000:00000000       ___safe_se_handler_table   0000000000000000     <absolute>
 0000:00000000       __ImageBase                0000000140000000     <linker-defined>
 0001:00000ad0       ?_GetBaseClass@CConfigPage0@@KAPEAUCRuntimeClass@@XZ 0000000140001ad0 f   ConfigPage0.obj
 0001:00000b00       ?GetThisClass@CConfigPage0@@SAPEAUCRuntimeClass@@XZ 0000000140001b00 f   ConfigPage0.obj
 0001:00000b20       ?GetRuntimeClass@CConfigPage0@@UEBAPEAUCRuntimeClass@@XZ 0000000140001b20 f   ConfigPage0.obj
 0001:00000b40       ??0CConfigPage0@@QEAA@XZ   0000000140001b40 f   ConfigPage0.obj
 0001:00000c80       ??1CConfigPage0@@UEAA@XZ   0000000140001c80 f   ConfigPage0.obj
 0001:00000d20       ?DoDataExchange@CConfigPage0@@MEAAXPEAVCDataExchange@@@Z 0000000140001d20 f   ConfigPage0.obj
 0001:00000de0       ?GetMessageMap@CConfigPage0@@MEBAPEBUAFX_MSGMAP@@XZ 0000000140001de0 f   ConfigPage0.obj
 0001:00000e10       ?GetThisMessageMap@CConfigPage0@@KAPEBUAFX_MSGMAP@@XZ 0000000140001e10 f   ConfigPage0.obj
 0001:00000e30       ?OnOK@CConfigPage0@@UEAAXXZ 0000000140001e30 f   ConfigPage0.obj
 0001:00001000       ?OnChangeEditDeviceName@CConfigPage0@@QEAAXXZ 0000000140002000 f   ConfigPage0.obj
 0001:00001050       ?OnApply@CConfigPage0@@UEAAHXZ 0000000140002050 f   ConfigPage0.obj
 0001:000011f0       ?OnCancel@CConfigPage0@@UEAAXXZ 00000001400021f0 f   ConfigPage0.obj
 0001:000012b0       ?OnChangeEditPwdNew@CConfigPage0@@QEAAXXZ 00000001400022b0 f   ConfigPage0.obj
 0001:00001300       ?OnChangeEditPwdRepeat@CConfigPage0@@QEAAXXZ 0000000140002300 f   ConfigPage0.obj
 0001:00001342       socket                     0000000140002342 f   ws2_32:WS2_32.dll
 0001:00001348       inet_addr                  0000000140002348 f   ws2_32:WS2_32.dll
 0001:0000134e       htons                      000000014000234e f   ws2_32:WS2_32.dll
 0001:00001354       connect                    0000000140002354 f   ws2_32:WS2_32.dll
 0001:0000135a       send                       000000014000235a f   ws2_32:WS2_32.dll
 0001:00001360       WSAGetLastError            0000000140002360 f   ws2_32:WS2_32.dll
 0001:00001366       closesocket                0000000140002366 f   ws2_32:WS2_32.dll
 0001:0000136c       strlen                     000000014000236c f   msvcrtd:MSVCR100D.dll
 0001:00001372       htonl                      0000000140002372 f   ws2_32:WS2_32.dll
 0001:00001378       bind                       0000000140002378 f   ws2_32:WS2_32.dll
 0001:0000137e       ?GetBuffer@?$CSimpleStringT@_W$00@ATL@@QEAAPEA_WH@Z 000000014000237e f   mfc100ud:mfc100ud.dll
 0001:00001384       ?ReleaseBuffer@?$CSimpleStringT@_W$00@ATL@@QEAAXH@Z 0000000140002384 f   mfc100ud:mfc100ud.dll
 0001:0000138a       ?ReverseFind@?$CStringT@_WV?$StrTraitMFC_DLL@_WV?$ChTraitsCRT@_W@ATL@@@@@ATL@@QEBAH_W@Z 000000014000238a f   mfc100ud:mfc100ud.dll
 0001:00001390       ?Left@?$CStringT@_WV?$StrTraitMFC_DLL@_WV?$ChTraitsCRT@_W@ATL@@@@@ATL@@QEBA?AV12@H@Z 0000000140002390 f   mfc100ud:mfc100ud.dll
 0001:00001560       ??_ECConfigPage0@@UEAAPEAXI@Z 0000000140002560 f i ConfigPage0.obj
 0001:00001560       ??_GCConfigPage0@@UEAAPEAXI@Z 0000000140002560 f i ConfigPage0.obj
 0001:000015c0       ??9ATL@@YA_NAEBV?$CStringT@_WV?$StrTraitMFC_DLL@_WV?$ChTraitsCRT@_W@ATL@@@@@0@0@Z 00000001400025c0 f i ConfigPage0.obj
 0001:00001640       ??9ATL@@YA_NAEBV?$CStringT@_WV?$StrTraitMFC_DLL@_WV?$ChTraitsCRT@_W@ATL@@@@@0@PEB_W@Z 0000000140002640 f i ConfigPage0.obj
 0001:000016b0       ?_GetBaseClass@CConfigPage1@@KAPEAUCRuntimeClass@@XZ 00000001400026b0 f   ConfigPage1.obj
 0001:000016e0       ?GetThisClass@CConfigPage1@@SAPEAUCRuntimeClass@@XZ 00000001400026e0 f   ConfigPage1.obj
 0001:00001700       ?GetRuntimeClass@CConfigPage1@@UEBAPEAUCRuntimeClass@@XZ 0000000140002700 f   ConfigPage1.obj
 0001:00001720       ??0CConfigPage1@@QEAA@XZ   0000000140002720 f   ConfigPage1.obj
 0001:000017c0       ??1CConfigPage1@@UEAA@XZ   00000001400027c0 f   ConfigPage1.obj
 0001:00001810       ?DoDataExchange@CConfigPage1@@MEAAXPEAVCDataExchange@@@Z 0000000140002810 f   ConfigPage1.obj
 0001:00001910       ?GetMessageMap@CConfigPage1@@MEBAPEBUAFX_MSGMAP@@XZ 0000000140002910 f   ConfigPage1.obj
 0001:00001940       ?GetThisMessageMap@CConfigPage1@@KAPEBUAFX_MSGMAP@@XZ 0000000140002940 f   ConfigPage1.obj
 0001:00001960       ?OnOK@CConfigPage1@@UEAAXXZ 0000000140002960 f   ConfigPage1.obj
 0001:00001b80       ?OnApply@CConfigPage1@@UEAAHXZ 0000000140002b80 f   ConfigPage1.obj
 0001:00001c30       ?OnChangeEditDiscoverPort@CConfigPage1@@QEAAXXZ 0000000140002c30 f   ConfigPage1.obj
 0001:00001c90       ?OnChangeEditPubPort@CConfigPage1@@QEAAXXZ 0000000140002c90 f   ConfigPage1.obj
 0001:00001cf0       ?OnChangeEditRoutePort@CConfigPage1@@QEAAXXZ 0000000140002cf0 f   ConfigPage1.obj
 0001:00001ef0       ??_GCConfigPage1@@UEAAPEAXI@Z 0000000140002ef0 f i ConfigPage1.obj
 0001:00001ef0       ??_ECConfigPage1@@UEAAPEAXI@Z 0000000140002ef0 f i ConfigPage1.obj
 0001:00001f50       ??HATL@@YA?AV?$CStringT@_WV?$StrTraitMFC_DLL@_WV?$ChTraitsCRT@_W@ATL@@@@@0@AEBV10@PEB_W@Z 0000000140002f50 f i ConfigPage1.obj
 0001:00002080       ?_GetBaseClass@CConfigSheet@@KAPEAUCRuntimeClass@@XZ 0000000140003080 f   ConfigSheet.obj
 0001:000020b0       ?GetThisClass@CConfigSheet@@SAPEAUCRuntimeClass@@XZ 00000001400030b0 f   ConfigSheet.obj
 0001:000020d0       ?GetRuntimeClass@CConfigSheet@@UEBAPEAUCRuntimeClass@@XZ 00000001400030d0 f   ConfigSheet.obj
 0001:000020f0       ??0CConfigSheet@@QEAA@IPEAVCWnd@@I@Z 00000001400030f0 f   ConfigSheet.obj
 0001:000022a0       ??0CConfigSheet@@QEAA@PEB_WPEAVCWnd@@I@Z 00000001400032a0 f   ConfigSheet.obj
 0001:00002400       ??1CConfigSheet@@UEAA@XZ   0000000140003400 f   ConfigSheet.obj
 0001:000024d0       ?GetMessageMap@CConfigSheet@@MEBAPEBUAFX_MSGMAP@@XZ 00000001400034d0 f   ConfigSheet.obj
 0001:00002500       ?GetThisMessageMap@CConfigSheet@@KAPEBUAFX_MSGMAP@@XZ 0000000140003500 f   ConfigSheet.obj
 0001:00002630       ??_ECConfigSheet@@UEAAPEAXI@Z 0000000140003630 f i ConfigSheet.obj
 0001:00002630       ??_GCConfigSheet@@UEAAPEAXI@Z 0000000140003630 f i ConfigSheet.obj
 0001:00002690       ??0CDropEdit@@QEAA@XZ      0000000140003690 f   DropEdit.obj
 0001:00002710       ??1CDropEdit@@UEAA@XZ      0000000140003710 f   DropEdit.obj
 0001:00002770       ?GetMessageMap@CDropEdit@@MEBAPEBUAFX_MSGMAP@@XZ 0000000140003770 f   DropEdit.obj
 0001:000027a0       ?GetThisMessageMap@CDropEdit@@KAPEBUAFX_MSGMAP@@XZ 00000001400037a0 f   DropEdit.obj
 0001:000027c0       ?Register@CDropEdit@@UEAAHXZ 00000001400037c0 f   DropEdit.obj
 0001:00002810       ?OnDragOver@CDropEdit@@IEAA_J_K_J@Z 0000000140003810 f   DropEdit.obj
 0001:000028a0       ?OnDropEx@CDropEdit@@IEAA_J_K_J@Z 00000001400038a0 f   DropEdit.obj
 0001:000028c0       ?OnDrop@CDropEdit@@IEAA_J_K_J@Z 00000001400038c0 f   DropEdit.obj
 0001:000029a0       ?OnDragLeave@CDropEdit@@IEAA_J_K_J@Z 00000001400039a0 f   DropEdit.obj
 0001:000029c0       ?OnLButtonDown@CDropEdit@@IEAAXIVCPoint@@@Z 00000001400039c0 f   DropEdit.obj
 0001:00002ed0       ??_ECDropEdit@@UEAAPEAXI@Z 0000000140003ed0 f i DropEdit.obj
 0001:00002ed0       ??_GCDropEdit@@UEAAPEAXI@Z 0000000140003ed0 f i DropEdit.obj
 0001:00002f30       ??$wcscpy_s@$0BAE@@@YAHAEAY0BAE@_WPEB_W@Z 0000000140003f30 f i DropEdit.obj
 0001:00002f80       ?_GetBaseClass@CMyButton@@KAPEAUCRuntimeClass@@XZ 0000000140003f80 f   MyButton.obj
 0001:00002fb0       ?GetThisClass@CMyButton@@SAPEAUCRuntimeClass@@XZ 0000000140003fb0 f   MyButton.obj
 0001:00002fd0       ?GetRuntimeClass@CMyButton@@UEBAPEAUCRuntimeClass@@XZ 0000000140003fd0 f   MyButton.obj
 0001:00002ff0       ??0CMyButton@@QEAA@XZ      0000000140003ff0 f   MyButton.obj
 0001:00003040       ??1CMyButton@@UEAA@XZ      0000000140004040 f   MyButton.obj
 0001:00003090       ?GetMessageMap@CMyButton@@MEBAPEBUAFX_MSGMAP@@XZ 0000000140004090 f   MyButton.obj
 0001:000030c0       ?GetThisMessageMap@CMyButton@@KAPEBUAFX_MSGMAP@@XZ 00000001400040c0 f   MyButton.obj
 0001:000030e0       ?OnMouseMove@CMyButton@@QEAAXIVCPoint@@@Z 00000001400040e0 f   MyButton.obj
 0001:00003190       ??_ECMyButton@@UEAAPEAXI@Z 0000000140004190 f i MyButton.obj
 0001:00003190       ??_GCMyButton@@UEAAPEAXI@Z 0000000140004190 f i MyButton.obj
 0001:000031f0       ?_GetBaseClass@CMyDialog@@KAPEAUCRuntimeClass@@XZ 00000001400041f0 f   MyDialog.obj
 0001:00003220       ?GetThisClass@CMyDialog@@SAPEAUCRuntimeClass@@XZ 0000000140004220 f   MyDialog.obj
 0001:00003240       ?GetRuntimeClass@CMyDialog@@UEBAPEAUCRuntimeClass@@XZ 0000000140004240 f   MyDialog.obj
 0001:00003260       ??0CMyDialog@@QEAA@PEAVCWnd@@@Z 0000000140004260 f   MyDialog.obj
 0001:000032c0       ??1CMyDialog@@UEAA@XZ      00000001400042c0 f   MyDialog.obj
 0001:00003310       ?DoDataExchange@CMyDialog@@MEAAXPEAVCDataExchange@@@Z 0000000140004310 f   MyDialog.obj
 0001:00003350       ?GetMessageMap@CMyDialog@@MEBAPEBUAFX_MSGMAP@@XZ 0000000140004350 f   MyDialog.obj
 0001:00003380       ?GetThisMessageMap@CMyDialog@@KAPEBUAFX_MSGMAP@@XZ 0000000140004380 f   MyDialog.obj
 0001:00003400       ??_GCMyDialog@@UEAAPEAXI@Z 0000000140004400 f i MyDialog.obj
 0001:00003400       ??_ECMyDialog@@UEAAPEAXI@Z 0000000140004400 f i MyDialog.obj
 0001:00003460       ??1CDialogEx@@UEAA@XZ      0000000140004460 f i MyDialog.obj
 0001:000034e0       ?_GetBaseClass@CMyList@@KAPEAUCRuntimeClass@@XZ 00000001400044e0 f   MyList.obj
 0001:00003510       ?GetThisClass@CMyList@@SAPEAUCRuntimeClass@@XZ 0000000140004510 f   MyList.obj
 0001:00003530       ?GetRuntimeClass@CMyList@@UEBAPEAUCRuntimeClass@@XZ 0000000140004530 f   MyList.obj
 0001:00003550       ??0CMyList@@QEAA@XZ        0000000140004550 f   MyList.obj
 0001:000035c0       ??1CMyList@@UEAA@XZ        00000001400045c0 f   MyList.obj
 0001:00003620       ?GetMessageMap@CMyList@@MEBAPEBUAFX_MSGMAP@@XZ 0000000140004620 f   MyList.obj
 0001:00003650       ?GetThisMessageMap@CMyList@@KAPEBUAFX_MSGMAP@@XZ 0000000140004650 f   MyList.obj
 0001:00003670       ?Initialize@CMyList@@UEAAHXZ 0000000140004670 f   MyList.obj
 0001:000036c0       ?OnDragOver@CMyList@@UEAAKPEAVCWnd@@PEAVCOleDataObject@@KVCPoint@@@Z 00000001400046c0 f   MyList.obj
 0001:000036f0       ?OnDropEx@CMyList@@UEAAKPEAVCWnd@@PEAVCOleDataObject@@KKVCPoint@@@Z 00000001400046f0 f   MyList.obj
 0001:00003720       ?OnDrop@CMyList@@UEAAHPEAVCWnd@@PEAVCOleDataObject@@KVCPoint@@@Z 0000000140004720 f   MyList.obj
 0001:000038d0       ?OnDragLeave@CMyList@@UEAAXPEAVCWnd@@@Z 00000001400048d0 f   MyList.obj
 0001:000038f0       ?AddFile@CMyList@@QEAAXPEA_W@Z 00000001400048f0 f   MyList.obj
 0001:00003a10       ??_GCMyList@@UEAAPEAXI@Z   0000000140004a10 f i MyList.obj
 0001:00003a10       ??_ECMyList@@UEAAPEAXI@Z   0000000140004a10 f i MyList.obj
 0001:00003a70       ?_GetBaseClass@COleDropInfo@@KAPEAUCRuntimeClass@@XZ 0000000140004a70 f   OleDropTargetEx.obj
 0001:00003aa0       ?GetThisClass@COleDropInfo@@SAPEAUCRuntimeClass@@XZ 0000000140004aa0 f   OleDropTargetEx.obj
 0001:00003ac0       ?GetRuntimeClass@COleDropInfo@@UEBAPEAUCRuntimeClass@@XZ 0000000140004ac0 f   OleDropTargetEx.obj
 0001:00003ae0       ??0COleDropInfo@@QEAA@XZ   0000000140004ae0 f   OleDropTargetEx.obj
 0001:00003b70       ??0COleDropInfo@@QEAA@PEAVCOleDataObject@@KKKVCPoint@@@Z 0000000140004b70 f   OleDropTargetEx.obj
 0001:00003c20       ??1COleDropInfo@@UEAA@XZ   0000000140004c20 f   OleDropTargetEx.obj
 0001:00003c70       ??0COleDropTargetEx@@QEAA@XZ 0000000140004c70 f   OleDropTargetEx.obj
 0001:00003cc0       ??1COleDropTargetEx@@UEAA@XZ 0000000140004cc0 f   OleDropTargetEx.obj
 0001:00003d10       ?OnDragEnter@COleDropTargetEx@@MEAAKPEAVCWnd@@PEAVCOleDataObject@@KVCPoint@@@Z 0000000140004d10 f   OleDropTargetEx.obj
 0001:00003e70       ?OnDragOver@COleDropTargetEx@@MEAAKPEAVCWnd@@PEAVCOleDataObject@@KVCPoint@@@Z 0000000140004e70 f   OleDropTargetEx.obj
 0001:00003fd0       ?OnDrop@COleDropTargetEx@@MEAAHPEAVCWnd@@PEAVCOleDataObject@@KVCPoint@@@Z 0000000140004fd0 f   OleDropTargetEx.obj
 0001:00004130       ?OnDropEx@COleDropTargetEx@@MEAAKPEAVCWnd@@PEAVCOleDataObject@@KKVCPoint@@@Z 0000000140005130 f   OleDropTargetEx.obj
 0001:000042a0       ?OnDragLeave@COleDropTargetEx@@MEAAXPEAVCWnd@@@Z 00000001400052a0 f   OleDropTargetEx.obj
 0001:00004590       ??_GCOleDropInfo@@UEAAPEAXI@Z 0000000140005590 f i OleDropTargetEx.obj
 0001:00004590       ??_ECOleDropInfo@@UEAAPEAXI@Z 0000000140005590 f i OleDropTargetEx.obj
 0001:000045f0       ??_GCOleDropTargetEx@@UEAAPEAXI@Z 00000001400055f0 f i OleDropTargetEx.obj
 0001:000045f0       ??_ECOleDropTargetEx@@UEAAPEAXI@Z 00000001400055f0 f i OleDropTargetEx.obj
 0001:00004650       ?GetMessageMap@CPropertyPageApp@@MEBAPEBUAFX_MSGMAP@@XZ 0000000140005650 f   PropertyPage.obj
 0001:00004680       ?GetThisMessageMap@CPropertyPageApp@@KAPEBUAFX_MSGMAP@@XZ 0000000140005680 f   PropertyPage.obj
 0001:000046a0       ?callback@@YAJPEAU_EXCEPTION_POINTERS@@@Z 00000001400056a0 f   PropertyPage.obj
 0001:00004c50       ??0CPropertyPageApp@@QEAA@XZ 0000000140005c50 f   PropertyPage.obj
 0001:00004cb0       ?InitInstance@CPropertyPageApp@@UEAAHXZ 0000000140005cb0 f   PropertyPage.obj
 0001:00004f60       ?ExitInstance@CPropertyPageApp@@MEAAHXZ 0000000140005f60 f   PropertyPage.obj
 0001:00005270       ?StringCchPrintfW@@YAJPEA_W_KPEB_WZZ 0000000140006270 f i PropertyPage.obj
 0001:00005350       ??_ECPropertyPageApp@@UEAAPEAXI@Z 0000000140006350 f i PropertyPage.obj
 0001:00005350       ??_GCPropertyPageApp@@UEAAPEAXI@Z 0000000140006350 f i PropertyPage.obj
 0001:000053b0       ??1CPropertyPageApp@@UEAA@XZ 00000001400063b0 f i PropertyPage.obj
 0001:000053f0       ?SupportsRestartManager@CWinApp@@UEBAHXZ 00000001400063f0 f i PropertyPage.obj
 0001:00005410       ?SupportsApplicationRecovery@CWinApp@@UEBAHXZ 0000000140006410 f i PropertyPage.obj
 0001:00005430       ?SupportsAutosaveAtRestart@CWinApp@@UEBAHXZ 0000000140006430 f i PropertyPage.obj
 0001:00005450       ?SupportsAutosaveAtInterval@CWinApp@@UEBAHXZ 0000000140006450 f i PropertyPage.obj
 0001:00005470       ?ReopenPreviousFilesAtRestart@CWinApp@@UEBAHXZ 0000000140006470 f i PropertyPage.obj
 0001:00005490       ?RestoreAutosavedFilesAtRestart@CWinApp@@UEBAHXZ 0000000140006490 f i PropertyPage.obj
 0001:000054b0       ?GetApplicationRestartFlags@CWinApp@@UEAAKXZ 00000001400064b0 f i PropertyPage.obj
 0001:000054c0       ?GetApplicationRecoveryParameter@CWinApp@@UEAAPEAXXZ 00000001400064c0 f i PropertyPage.obj
 0001:000054d0       ?GetApplicationRecoveryPingInterval@CWinApp@@UEAAKXZ 00000001400064d0 f i PropertyPage.obj
 0001:000054e0       ??0CAboutDlg@@QEAA@XZ      00000001400064e0 f   PropertyPageDlg.obj
 0001:00005530       ?DoDataExchange@CAboutDlg@@MEAAXPEAVCDataExchange@@@Z 0000000140006530 f   PropertyPageDlg.obj
 0001:00005570       ?GetMessageMap@CAboutDlg@@MEBAPEBUAFX_MSGMAP@@XZ 0000000140006570 f   PropertyPageDlg.obj
 0001:000055a0       ?GetThisMessageMap@CAboutDlg@@KAPEBUAFX_MSGMAP@@XZ 00000001400065a0 f   PropertyPageDlg.obj
 0001:000055c0       ??0CPropertyPageDlg@@QEAA@PEAVCWnd@@@Z 00000001400065c0 f   PropertyPageDlg.obj
 0001:00005710       ?DoDataExchange@CPropertyPageDlg@@MEAAXPEAVCDataExchange@@@Z 0000000140006710 f   PropertyPageDlg.obj
 0001:00005820       ?GetMessageMap@CPropertyPageDlg@@MEBAPEBUAFX_MSGMAP@@XZ 0000000140006820 f   PropertyPageDlg.obj
 0001:00005850       ?GetThisMessageMap@CPropertyPageDlg@@KAPEBUAFX_MSGMAP@@XZ 0000000140006850 f   PropertyPageDlg.obj
 0001:00005870       ?OnInitDialog@CPropertyPageDlg@@MEAAHXZ 0000000140006870 f   PropertyPageDlg.obj
 0001:00005ab0       ?OnSysCommand@CPropertyPageDlg@@IEAAXI_J@Z 0000000140006ab0 f   PropertyPageDlg.obj
 0001:00005b60       ?OnPaint@CPropertyPageDlg@@IEAAXXZ 0000000140006b60 f   PropertyPageDlg.obj
 0001:00005cf0       ?OnQueryDragIcon@CPropertyPageDlg@@IEAAPEAUHICON__@@XZ 0000000140006cf0 f   PropertyPageDlg.obj
 0001:00005d10       ?ShowTrayIcon@CPropertyPageDlg@@QEAAXXZ 0000000140006d10 f   PropertyPageDlg.obj
 0001:00005e20       ?OnBnClickedButtonProperty@CPropertyPageDlg@@QEAAXXZ 0000000140006e20 f   PropertyPageDlg.obj
 0001:00005eb0       ?OnBnClickedButton1@CPropertyPageDlg@@QEAAXXZ 0000000140006eb0 f   PropertyPageDlg.obj
 0001:000062c0       ?OnClickedCheck1@CPropertyPageDlg@@QEAAXXZ 00000001400072c0 f   PropertyPageDlg.obj
 0001:000062d0       ?OnClipboardUpdate@CPropertyPageDlg@@QEAAXXZ 00000001400072d0 f   PropertyPageDlg.obj
 0001:00006740       ?CreateMultiDirectory@CPropertyPageDlg@@QEAAHPEB_W0@Z 0000000140007740 f   PropertyPageDlg.obj
 0001:00006990       ?OnBnClickedButton2@CPropertyPageDlg@@QEAAXXZ 0000000140007990 f   PropertyPageDlg.obj
 0001:000069a0       ?OnBnClickedButton3@CPropertyPageDlg@@QEAAXXZ 00000001400079a0 f   PropertyPageDlg.obj
 0001:000069b0       ?OnBnClickedButton4@CPropertyPageDlg@@QEAAXXZ 00000001400079b0 f   PropertyPageDlg.obj
 0001:000069c0       ?OnBnClickedButton6@CPropertyPageDlg@@QEAAXXZ 00000001400079c0 f   PropertyPageDlg.obj
 0001:00006a00       ?OnBnClickedButton5@CPropertyPageDlg@@QEAAXXZ 0000000140007a00 f   PropertyPageDlg.obj
 0001:00006bb0       ?OnBnClickedDump@CPropertyPageDlg@@QEAAXXZ 0000000140007bb0 f   PropertyPageDlg.obj
 0001:00006c00       ?OnTimer@CPropertyPageDlg@@QEAAX_K@Z 0000000140007c00 f   PropertyPageDlg.obj
 0001:00006d90       ?OnDestroy@CPropertyPageDlg@@QEAAXXZ 0000000140007d90 f   PropertyPageDlg.obj
 0001:00006e50       ?OnDropFiles@CPropertyPageDlg@@QEAAXPEAUHDROP__@@@Z 0000000140007e50 f   PropertyPageDlg.obj
 0001:00006f70       ?OnBnClickedButton7@CPropertyPageDlg@@QEAAXXZ 0000000140007f70 f   PropertyPageDlg.obj
 0001:00006fd0       ?OnBnClickedButton8@CPropertyPageDlg@@QEAAXXZ 0000000140007fd0 f   PropertyPageDlg.obj
 0001:00007040       ?OnBnClickedButton9@CPropertyPageDlg@@QEAAXXZ 0000000140008040 f   PropertyPageDlg.obj
 0001:000070c0       ?OnBnClickedButton10@CPropertyPageDlg@@QEAAXXZ 00000001400080c0 f   PropertyPageDlg.obj
 0001:00007130       ?OnFileChange@CPropertyPageDlg@@IEAA_J_K_J@Z 0000000140008130 f   PropertyPageDlg.obj
 0001:00007290       ?OnNMClickSyslink1@CPropertyPageDlg@@QEAAXPEAUtagNMHDR@@PEA_J@Z 0000000140008290 f   PropertyPageDlg.obj
 0001:00007310       ?OnNMClickSyslink2@CPropertyPageDlg@@QEAAXPEAUtagNMHDR@@PEA_J@Z 0000000140008310 f   PropertyPageDlg.obj
 0001:00007390       ?OnExit@CPropertyPageDlg@@QEAAXXZ 0000000140008390 f   PropertyPageDlg.obj
 0001:000073d0       ?OnBnClickedNewDialog@CPropertyPageDlg@@QEAAXXZ 00000001400083d0 f   PropertyPageDlg.obj
 0001:00007440       ?OnCopyData@CPropertyPageDlg@@QEAAHPEAVCWnd@@PEAUtagCOPYDATASTRUCT@@@Z 0000000140008440 f   PropertyPageDlg.obj
 0001:00007500       ?OnBnClickedButton11@CPropertyPageDlg@@QEAAXXZ 0000000140008500 f   PropertyPageDlg.obj
 0001:000076a0       ?OnBnClickedButton12@CPropertyPageDlg@@QEAAXXZ 00000001400086a0 f   PropertyPageDlg.obj
 0001:00007f10       ??_ECAboutDlg@@UEAAPEAXI@Z 0000000140008f10 f i PropertyPageDlg.obj
 0001:00007f10       ??_GCAboutDlg@@UEAAPEAXI@Z 0000000140008f10 f i PropertyPageDlg.obj
 0001:00007f70       ??1CAboutDlg@@UEAA@XZ      0000000140008f70 f i PropertyPageDlg.obj
 0001:00007fb0       ??_GCPropertyPageDlg@@UEAAPEAXI@Z 0000000140008fb0 f i PropertyPageDlg.obj
 0001:00007fb0       ??_ECPropertyPageDlg@@UEAAPEAXI@Z 0000000140008fb0 f i PropertyPageDlg.obj
 0001:00008010       ??1CPropertyPageDlg@@UEAA@XZ 0000000140009010 f i PropertyPageDlg.obj
 0001:00008120       ?wcsrchr@@YAPEA_WPEA_W_W@Z 0000000140009120 f i PropertyPageDlg.obj
 0001:00008170       ??$wcscat_s@$0BAE@@@YAHAEAY0BAE@_WPEB_W@Z 0000000140009170 f i PropertyPageDlg.obj
 0001:000081c0       ??0CLinkCtrl@@QEAA@XZ      00000001400091c0 f i PropertyPageDlg.obj
 0001:00008220       ??_GCLinkCtrl@@UEAAPEAXI@Z 0000000140009220 f i PropertyPageDlg.obj
 0001:00008220       ??_ECLinkCtrl@@UEAAPEAXI@Z 0000000140009220 f i PropertyPageDlg.obj
 0001:00008280       ??1CLinkCtrl@@UEAA@XZ      0000000140009280 f i PropertyPageDlg.obj
 0001:000082f0       ?_AfxInitManaged@@YAHXZ    00000001400092f0 f i stdafx.obj
 0001:00008300       ??_H@YAXPEAX_KHP6APEAX0@Z@Z 0000000140009300 f i stdafx.obj
 0001:00008380       ??0Thank_you@Define_the_symbol__ATL_MIXED@@QEAA@XZ 0000000140009380 f i stdafx.obj
 0001:000083b0       ?one@Thank_you@Define_the_symbol__ATL_MIXED@@UEAAXXZ 00000001400093b0 f i stdafx.obj
 0001:000083c0       ?_GetBaseClass@CTestDlg@@KAPEAUCRuntimeClass@@XZ 00000001400093c0 f   TestDlg.obj
 0001:000083f0       ?GetThisClass@CTestDlg@@SAPEAUCRuntimeClass@@XZ 00000001400093f0 f   TestDlg.obj
 0001:00008410       ?GetRuntimeClass@CTestDlg@@UEBAPEAUCRuntimeClass@@XZ 0000000140009410 f   TestDlg.obj
 0001:00008430       ??0CTestDlg@@QEAA@PEAVCWnd@@@Z 0000000140009430 f   TestDlg.obj
 0001:000084d0       ??1CTestDlg@@UEAA@XZ       00000001400094d0 f   TestDlg.obj
 0001:00008560       ?DoDataExchange@CTestDlg@@MEAAXPEAVCDataExchange@@@Z 0000000140009560 f   TestDlg.obj
 0001:000085e0       ?GetMessageMap@CTestDlg@@MEBAPEBUAFX_MSGMAP@@XZ 00000001400095e0 f   TestDlg.obj
 0001:00008610       ?GetThisMessageMap@CTestDlg@@KAPEBUAFX_MSGMAP@@XZ 0000000140009610 f   TestDlg.obj
 0001:00008630       ?OnInitDialog@CTestDlg@@UEAAHXZ 0000000140009630 f   TestDlg.obj
 0001:00008710       ?OnKillfocusEdit1@CTestDlg@@QEAAXXZ 0000000140009710 f   TestDlg.obj
 0001:00008750       ?OnBnClickedStartupRunEx@CTestDlg@@QEAAXXZ 0000000140009750 f   TestDlg.obj
 0001:00008900       ?OnBnClickedUnstartupRunex@CTestDlg@@QEAAXXZ 0000000140009900 f   TestDlg.obj
 0001:00008a20       ?OnBnClickedButton2@CTestDlg@@QEAAXXZ 0000000140009a20 f   TestDlg.obj
 0001:00008b60       ?OnBnClickedButton3@CTestDlg@@QEAAXXZ 0000000140009b60 f   TestDlg.obj
 0001:00008e10       ??_ECTestDlg@@UEAAPEAXI@Z  0000000140009e10 f i TestDlg.obj
 0001:00008e10       ??_GCTestDlg@@UEAAPEAXI@Z  0000000140009e10 f i TestDlg.obj
 0001:00008e70       ?_GetBaseClass@CSystemTray@@KAPEAUCRuntimeClass@@XZ 0000000140009e70 f   SystemTray.obj
 0001:00008ea0       ?GetThisClass@CSystemTray@@SAPEAUCRuntimeClass@@XZ 0000000140009ea0 f   SystemTray.obj
 0001:00008ec0       ?GetRuntimeClass@CSystemTray@@UEBAPEAUCRuntimeClass@@XZ 0000000140009ec0 f   SystemTray.obj
 0001:00008ee0       ??0CSystemTray@@QEAA@XZ    0000000140009ee0 f   SystemTray.obj
 0001:00008f70       ??0CSystemTray@@QEAA@PEAVCWnd@@IPEB_WPEAUHICON__@@IH11KI@Z 0000000140009f70 f   SystemTray.obj
 0001:00009090       ?Initialise@CSystemTray@@IEAAXXZ 000000014000a090 f   SystemTray.obj
 0001:00009230       ?Create@CSystemTray@@QEAAHPEAVCWnd@@IPEB_WPEAUHICON__@@IH11KI@Z 000000014000a230 f   SystemTray.obj
 0001:00009830       ??1CSystemTray@@UEAA@XZ    000000014000a830 f   SystemTray.obj
 0001:000098c0       ?SetFocus@CSystemTray@@QEAAXXZ 000000014000a8c0 f   SystemTray.obj
 0001:00009910       ?MoveToRight@CSystemTray@@QEAAHXZ 000000014000a910 f   SystemTray.obj
 0001:00009950       ?AddIcon@CSystemTray@@QEAAHXZ 000000014000a950 f   SystemTray.obj
 0001:00009a20       ?RemoveIcon@CSystemTray@@QEAAHXZ 000000014000aa20 f   SystemTray.obj
 0001:00009af0       ?HideIcon@CSystemTray@@QEAAHXZ 000000014000aaf0 f   SystemTray.obj
 0001:00009be0       ?ShowIcon@CSystemTray@@QEAAHXZ 000000014000abe0 f   SystemTray.obj
 0001:00009ce0       ?SetIcon@CSystemTray@@QEAAHPEAUHICON__@@@Z 000000014000ace0 f   SystemTray.obj
 0001:00009d80       ?SetIcon@CSystemTray@@QEAAHPEB_W@Z 000000014000ad80 f   SystemTray.obj
 0001:00009e10       ?SetIcon@CSystemTray@@QEAAHI@Z 000000014000ae10 f   SystemTray.obj
 0001:00009e50       ?SetStandardIcon@CSystemTray@@QEAAHPEB_W@Z 000000014000ae50 f   SystemTray.obj
 0001:00009ea0       ?SetStandardIcon@CSystemTray@@QEAAHI@Z 000000014000aea0 f   SystemTray.obj
 0001:00009ee0       ?GetIcon@CSystemTray@@QEBAPEAUHICON__@@XZ 000000014000aee0 f   SystemTray.obj
 0001:00009f40       ?SetIconList@CSystemTray@@QEAAHII@Z 000000014000af40 f   SystemTray.obj
 0001:0000a050       ?SetIconList@CSystemTray@@QEAAHPEAPEAUHICON__@@I@Z 000000014000b050 f   SystemTray.obj
 0001:0000a110       ?Animate@CSystemTray@@QEAAHIH@Z 000000014000b110 f   SystemTray.obj
 0001:0000a230       ?StepAnimation@CSystemTray@@QEAAHXZ 000000014000b230 f   SystemTray.obj
 0001:0000a2f0       ?StopAnimation@CSystemTray@@QEAAHXZ 000000014000b2f0 f   SystemTray.obj
 0001:0000a3a0       ?SetTooltipText@CSystemTray@@QEAAHPEB_W@Z 000000014000b3a0 f   SystemTray.obj
 0001:0000a4a0       ?SetTooltipText@CSystemTray@@QEAAHI@Z 000000014000b4a0 f   SystemTray.obj
 0001:0000a550       ?GetTooltipText@CSystemTray@@QEBA?AV?$CStringT@_WV?$StrTraitMFC_DLL@_WV?$ChTraitsCRT@_W@ATL@@@@@ATL@@XZ 000000014000b550 f   SystemTray.obj
 0001:0000a610       ?ShowBalloon@CSystemTray@@QEAAHPEB_W0KI@Z 000000014000b610 f   SystemTray.obj
 0001:0000a820       ?SetNotificationWnd@CSystemTray@@QEAAHPEAVCWnd@@@Z 000000014000b820 f   SystemTray.obj
 0001:0000a900       ?GetNotificationWnd@CSystemTray@@QEBAPEAVCWnd@@XZ 000000014000b900 f   SystemTray.obj
 0001:0000a940       ?SetTargetWnd@CSystemTray@@QEAAHPEAVCWnd@@@Z 000000014000b940 f   SystemTray.obj
 0001:0000a970       ?GetTargetWnd@CSystemTray@@QEBAPEAVCWnd@@XZ 000000014000b970 f   SystemTray.obj
 0001:0000a9c0       ?SetCallbackMessage@CSystemTray@@QEAAHI@Z 000000014000b9c0 f   SystemTray.obj
 0001:0000aa70       ?GetCallbackMessage@CSystemTray@@QEBAIXZ 000000014000ba70 f   SystemTray.obj
 0001:0000aa90       ?SetMenuDefaultItem@CSystemTray@@QEAAHIH@Z 000000014000ba90 f   SystemTray.obj
 0001:0000ac00       ?GetMenuDefaultItem@CSystemTray@@QEAAXAEAIAEAH@Z 000000014000bc00 f   SystemTray.obj
 0001:0000ac40       ?GetMessageMap@CSystemTray@@MEBAPEBUAFX_MSGMAP@@XZ 000000014000bc40 f   SystemTray.obj
 0001:0000ac70       ?GetThisMessageMap@CSystemTray@@KAPEBUAFX_MSGMAP@@XZ 000000014000bc70 f   SystemTray.obj
 0001:0000ac90       ?OnTimer@CSystemTray@@IEAAX_K@Z 000000014000bc90 f   SystemTray.obj
 0001:0000ad80       ?OnTaskbarCreated@CSystemTray@@IEAA_J_K_J@Z 000000014000bd80 f   SystemTray.obj
 0001:0000add0       ?OnSettingChange@CSystemTray@@IEAAXIPEB_W@Z 000000014000bdd0 f   SystemTray.obj
 0001:0000ae60       ?OnTrayNotification@CSystemTray@@UEAA_J_K_J@Z 000000014000be60 f   SystemTray.obj
 0001:0000b1c0       ?WindowProc@CSystemTray@@MEAA_JI_K_J@Z 000000014000c1c0 f   SystemTray.obj
 0001:0000b240       ?InstallIconPending@CSystemTray@@IEAAXXZ 000000014000c240 f   SystemTray.obj
 0001:0000b2f0       ?FindTrayWnd@@YAHPEAUHWND__@@_J@Z 000000014000c2f0 f   SystemTray.obj
 0001:0000b460       ?GetTrayWndRect@CSystemTray@@KAXPEAUtagRECT@@@Z 000000014000c460 f   SystemTray.obj
 0001:0000b6d0       ?GetDoWndAnimation@CSystemTray@@KAHXZ 000000014000c6d0 f   SystemTray.obj
 0001:0000b750       ?RemoveTaskbarIcon@CSystemTray@@KAHPEAVCWnd@@@Z 000000014000c750 f   SystemTray.obj
 0001:0000b820       ?MinimiseToTray@CSystemTray@@SAXPEAVCWnd@@H@Z 000000014000c820 f   SystemTray.obj
 0001:0000b950       ?MaximiseFromTray@CSystemTray@@SAXPEAVCWnd@@H@Z 000000014000c950 f   SystemTray.obj
 0001:0000c5f0       ?CustomizeMenu@CSystemTray@@MEAAXPEAVCMenu@@@Z 000000014000d5f0 f i SystemTray.obj
 0001:0000c600       ??_ECSystemTray@@UEAAPEAXI@Z 000000014000d600 f i SystemTray.obj
 0001:0000c600       ??_GCSystemTray@@UEAAPEAXI@Z 000000014000d600 f i SystemTray.obj
 0001:0000c660       ??0?$CArray@PEAUHICON__@@PEAU1@@@QEAA@XZ 000000014000d660 f i SystemTray.obj
 0001:0000c700       ?GetSize@?$CArray@PEAUHICON__@@PEAU1@@@QEBA_JXZ 000000014000d700 f i SystemTray.obj
 0001:0000c720       ?IsEmpty@?$CArray@PEAUHICON__@@PEAU1@@@QEBAHXZ 000000014000d720 f i SystemTray.obj
 0001:0000c780       ?RemoveAll@?$CArray@PEAUHICON__@@PEAU1@@@QEAAXXZ 000000014000d780 f i SystemTray.obj
 0001:0000c7d0       ?Add@?$CArray@PEAUHICON__@@PEAU1@@@QEAA_JPEAUHICON__@@@Z 000000014000d7d0 f i SystemTray.obj
 0001:0000c840       ??A?$CArray@PEAUHICON__@@PEAU1@@@QEAAAEAPEAUHICON__@@_J@Z 000000014000d840 f i SystemTray.obj
 0001:0000c890       ??1?$CArray@PEAUHICON__@@PEAU1@@@UEAA@XZ 000000014000d890 f i SystemTray.obj
 0001:0000c970       ?Serialize@?$CArray@PEAUHICON__@@PEAU1@@@UEAAXAEAVCArchive@@@Z 000000014000d970 f i SystemTray.obj
 0001:0000ca50       ?Dump@?$CArray@PEAUHICON__@@PEAU1@@@UEBAXAEAVCDumpContext@@@Z 000000014000da50 f i SystemTray.obj
 0001:0000cb40       ?AssertValid@?$CArray@PEAUHICON__@@PEAU1@@@UEBAXXZ 000000014000db40 f i SystemTray.obj
 0001:0000ccd0       ??$wcsncpy_s@$0IA@@@YAHAEAY0IA@_WPEB_W_K@Z 000000014000dcd0 f i SystemTray.obj
 0001:0000cd30       ??$wcsncpy_s@$0BAA@@@YAHAEAY0BAA@_WPEB_W_K@Z 000000014000dd30 f i SystemTray.obj
 0001:0000cd90       ??$wcsncpy_s@$0EA@@@YAHAEAY0EA@_WPEB_W_K@Z 000000014000dd90 f i SystemTray.obj
 0001:0000cdf0       ??_E?$CArray@PEAUHICON__@@PEAU1@@@UEAAPEAXI@Z 000000014000ddf0 f i SystemTray.obj
 0001:0000cdf0       ??_G?$CArray@PEAUHICON__@@PEAU1@@@UEAAPEAXI@Z 000000014000ddf0 f i SystemTray.obj
 0001:0000ce50       ?SetSize@?$CArray@PEAUHICON__@@PEAU1@@@QEAAX_J0@Z 000000014000de50 f i SystemTray.obj
 0001:0000d6b0       ??2@YAPEAX_KPEAX@Z         000000014000e6b0 f i SystemTray.obj
 0001:0000d6d0       ?ElementAt@?$CArray@PEAUHICON__@@PEAU1@@@QEAAAEAPEAUHICON__@@_J@Z 000000014000e6d0 f i SystemTray.obj
 0001:0000d780       ?SetAtGrow@?$CArray@PEAUHICON__@@PEAU1@@@QEAAX_JPEAUHICON__@@@Z 000000014000e780 f i SystemTray.obj
 0001:0000d870       ?memcpy_s@Checked@ATL@@YAXPEAX_KPEBX1@Z 000000014000e870 f i SystemTray.obj
 0001:0000d8e0       ?AfxCrtErrorCheck@@YAHH@Z  000000014000e8e0 f i SystemTray.obj
 0001:0000d970       ??$SerializeElements@PEAUHICON__@@@@YAXAEAVCArchive@@PEAPEAUHICON__@@_J@Z 000000014000e970 f i SystemTray.obj
 0001:0000dc10       ??$DumpElements@PEAUHICON__@@@@YAXAEAVCDumpContext@@PEBQEAUHICON__@@_J@Z 000000014000ec10 f i SystemTray.obj
 0001:0000dd08       MiniDumpWriteDump          000000014000ed08 f   Dbghelp:dbghelp.dll
 0001:0000dd0e       ??3@YAXPEAX@Z              000000014000ed0e f   mfc100ud:mfc100ud.dll
 0001:0000dd14       ?GetThisClass@CPropertyPage@@SAPEAUCRuntimeClass@@XZ 000000014000ed14 f   mfc100ud:mfc100ud.dll
 0001:0000dd1a       ??1?$CStringT@_WV?$StrTraitMFC_DLL@_WV?$ChTraitsCRT@_W@ATL@@@@@ATL@@QEAA@XZ 000000014000ed1a f   mfc100ud:mfc100ud.dll
 0001:0000dd20       ??1CPropertyPage@@UEAA@XZ  000000014000ed20 f   mfc100ud:mfc100ud.dll
 0001:0000dd26       ??4?$CStringT@_WV?$StrTraitMFC_DLL@_WV?$ChTraitsCRT@_W@ATL@@@@@ATL@@QEAAAEAV01@PEB_W@Z 000000014000ed26 f   mfc100ud:mfc100ud.dll
 0001:0000dd2c       ??0?$CStringT@_WV?$StrTraitMFC_DLL@_WV?$ChTraitsCRT@_W@ATL@@@@@ATL@@QEAA@XZ 000000014000ed2c f   mfc100ud:mfc100ud.dll
 0001:0000dd32       ??0CPropertyPage@@QEAA@IIK@Z 000000014000ed32 f   mfc100ud:mfc100ud.dll
 0001:0000dd38       ?Serialize@CObject@@UEAAXAEAVCArchive@@@Z 000000014000ed38 f   mfc100ud:mfc100ud.dll
 0001:0000dd3e       ?AssertValid@CPropertyPage@@UEBAXXZ 000000014000ed3e f   mfc100ud:mfc100ud.dll
 0001:0000dd44       ?Dump@CPropertyPage@@UEBAXAEAVCDumpContext@@@Z 000000014000ed44 f   mfc100ud:mfc100ud.dll
 0001:0000dd4a       ?OnCmdMsg@CDialog@@UEAAHIHPEAXPEAUAFX_CMDHANDLERINFO@@@Z 000000014000ed4a f   mfc100ud:mfc100ud.dll
 0001:0000dd50       ?OnFinalRelease@CWnd@@UEAAXXZ 000000014000ed50 f   mfc100ud:mfc100ud.dll
 0001:0000dd56       ?IsInvokeAllowed@CCmdTarget@@UEAAHJ@Z 000000014000ed56 f   mfc100ud:mfc100ud.dll
 0001:0000dd5c       ?GetDispatchIID@CCmdTarget@@UEAAHPEAU_GUID@@@Z 000000014000ed5c f   mfc100ud:mfc100ud.dll
 0001:0000dd62       ?GetTypeInfoCount@CCmdTarget@@UEAAIXZ 000000014000ed62 f   mfc100ud:mfc100ud.dll
 0001:0000dd68       ?GetTypeLibCache@CCmdTarget@@UEAAPEAVCTypeLibCache@@XZ 000000014000ed68 f   mfc100ud:mfc100ud.dll
 0001:0000dd6e       ?GetTypeLib@CCmdTarget@@UEAAJKPEAPEAUITypeLib@@@Z 000000014000ed6e f   mfc100ud:mfc100ud.dll
 0001:0000dd74       ?GetCommandMap@CCmdTarget@@MEBAPEBUAFX_OLECMDMAP@@XZ 000000014000ed74 f   mfc100ud:mfc100ud.dll
 0001:0000dd7a       ?GetDispatchMap@CCmdTarget@@MEBAPEBUAFX_DISPMAP@@XZ 000000014000ed7a f   mfc100ud:mfc100ud.dll
 0001:0000dd80       ?GetConnectionMap@CCmdTarget@@MEBAPEBUAFX_CONNECTIONMAP@@XZ 000000014000ed80 f   mfc100ud:mfc100ud.dll
 0001:0000dd86       ?GetInterfaceMap@CWnd@@MEBAPEBUAFX_INTERFACEMAP@@XZ 000000014000ed86 f   mfc100ud:mfc100ud.dll
 0001:0000dd8c       ?GetEventSinkMap@CCmdTarget@@MEBAPEBUAFX_EVENTSINKMAP@@XZ 000000014000ed8c f   mfc100ud:mfc100ud.dll
 0001:0000dd92       ?OnCreateAggregates@CCmdTarget@@UEAAHXZ 000000014000ed92 f   mfc100ud:mfc100ud.dll
 0001:0000dd98       ?GetInterfaceHook@CCmdTarget@@UEAAPEAUIUnknown@@PEBX@Z 000000014000ed98 f   mfc100ud:mfc100ud.dll
 0001:0000dd9e       ?GetExtraConnectionPoints@CCmdTarget@@MEAAHPEAVCPtrArray@@@Z 000000014000ed9e f   mfc100ud:mfc100ud.dll
 0001:0000dda4       ?GetConnectionHook@CCmdTarget@@MEAAPEAUIConnectionPoint@@AEBU_GUID@@@Z 000000014000eda4 f   mfc100ud:mfc100ud.dll
 0001:0000ddaa       ?PreSubclassWindow@CWnd@@UEAAXXZ 000000014000edaa f   mfc100ud:mfc100ud.dll
 0001:0000ddb0       ?Create@CWnd@@UEAAHPEB_W0KAEBUtagRECT@@PEAV1@IPEAUCCreateContext@@@Z 000000014000edb0 f   mfc100ud:mfc100ud.dll
 0001:0000ddb6       ?CreateEx@CWnd@@UEAAHKPEB_W0KAEBUtagRECT@@PEAV1@IPEAX@Z 000000014000edb6 f   mfc100ud:mfc100ud.dll
 0001:0000ddbc       ?CreateEx@CWnd@@UEAAHKPEB_W0KHHHHPEAUHWND__@@PEAUHMENU__@@PEAX@Z 000000014000edbc f   mfc100ud:mfc100ud.dll
 0001:0000ddc2       ?DestroyWindow@CWnd@@UEAAHXZ 000000014000edc2 f   mfc100ud:mfc100ud.dll
 0001:0000ddc8       ?PreCreateWindow@CWnd@@UEAAHAEAUtagCREATESTRUCTW@@@Z 000000014000edc8 f   mfc100ud:mfc100ud.dll
 0001:0000ddce       ?CalcWindowRect@CWnd@@UEAAXPEAUtagRECT@@I@Z 000000014000edce f   mfc100ud:mfc100ud.dll
 0001:0000ddd4       ?GetMenu@CWnd@@UEBAPEAVCMenu@@XZ 000000014000edd4 f   mfc100ud:mfc100ud.dll
 0001:0000ddda       ?SetMenu@CWnd@@UEAAHPEAVCMenu@@@Z 000000014000edda f   mfc100ud:mfc100ud.dll
 0001:0000dde0       ?OnToolHitTest@CWnd@@UEBA_JVCPoint@@PEAUtagTOOLINFOW@@@Z 000000014000ede0 f   mfc100ud:mfc100ud.dll
 0001:0000dde6       ?GetScrollBarCtrl@CWnd@@UEBAPEAVCScrollBar@@H@Z 000000014000ede6 f   mfc100ud:mfc100ud.dll
 0001:0000ddec       ?WinHelpW@CWnd@@UEAAX_KI@Z 000000014000edec f   mfc100ud:mfc100ud.dll
 0001:0000ddf2       ?HtmlHelpW@CWnd@@UEAAX_KI@Z 000000014000edf2 f   mfc100ud:mfc100ud.dll
 0001:0000ddf8       ?WinHelpInternal@CWnd@@UEAAX_KI@Z 000000014000edf8 f   mfc100ud:mfc100ud.dll
 0001:0000ddfe       ?ContinueModal@CWnd@@UEAAHXZ 000000014000edfe f   mfc100ud:mfc100ud.dll
 0001:0000de04       ?EndModalLoop@CWnd@@UEAAXH@Z 000000014000ee04 f   mfc100ud:mfc100ud.dll
 0001:0000de0a       ?OnDrawIconicThumbnailOrLivePreview@CWnd@@UEAAXAEAVCDC@@VCRect@@VCSize@@HAEAH@Z 000000014000ee0a f   mfc100ud:mfc100ud.dll
 0001:0000de10       ?EnsureStdObj@CWnd@@UEAAJXZ 000000014000ee10 f   mfc100ud:mfc100ud.dll
 0001:0000de16       ?get_accParent@CWnd@@UEAAJPEAPEAUIDispatch@@@Z 000000014000ee16 f   mfc100ud:mfc100ud.dll
 0001:0000de1c       ?get_accChildCount@CWnd@@UEAAJPEAJ@Z 000000014000ee1c f   mfc100ud:mfc100ud.dll
 0001:0000de22       ?get_accChild@CWnd@@UEAAJUtagVARIANT@@PEAPEAUIDispatch@@@Z 000000014000ee22 f   mfc100ud:mfc100ud.dll
 0001:0000de28       ?get_accName@CWnd@@UEAAJUtagVARIANT@@PEAPEA_W@Z 000000014000ee28 f   mfc100ud:mfc100ud.dll
 0001:0000de2e       ?get_accValue@CWnd@@UEAAJUtagVARIANT@@PEAPEA_W@Z 000000014000ee2e f   mfc100ud:mfc100ud.dll
 0001:0000de34       ?get_accDescription@CWnd@@UEAAJUtagVARIANT@@PEAPEA_W@Z 000000014000ee34 f   mfc100ud:mfc100ud.dll
 0001:0000de3a       ?get_accRole@CWnd@@UEAAJUtagVARIANT@@PEAU2@@Z 000000014000ee3a f   mfc100ud:mfc100ud.dll
 0001:0000de40       ?get_accState@CWnd@@UEAAJUtagVARIANT@@PEAU2@@Z 000000014000ee40 f   mfc100ud:mfc100ud.dll
 0001:0000de46       ?get_accHelp@CWnd@@UEAAJUtagVARIANT@@PEAPEA_W@Z 000000014000ee46 f   mfc100ud:mfc100ud.dll
 0001:0000de4c       ?get_accHelpTopic@CWnd@@UEAAJPEAPEA_WUtagVARIANT@@PEAJ@Z 000000014000ee4c f   mfc100ud:mfc100ud.dll
 0001:0000de52       ?get_accKeyboardShortcut@CWnd@@UEAAJUtagVARIANT@@PEAPEA_W@Z 000000014000ee52 f   mfc100ud:mfc100ud.dll
 0001:0000de58       ?get_accFocus@CWnd@@UEAAJPEAUtagVARIANT@@@Z 000000014000ee58 f   mfc100ud:mfc100ud.dll
 0001:0000de5e       ?get_accSelection@CWnd@@UEAAJPEAUtagVARIANT@@@Z 000000014000ee5e f   mfc100ud:mfc100ud.dll
 0001:0000de64       ?get_accDefaultAction@CWnd@@UEAAJUtagVARIANT@@PEAPEA_W@Z 000000014000ee64 f   mfc100ud:mfc100ud.dll
 0001:0000de6a       ?accSelect@CWnd@@UEAAJJUtagVARIANT@@@Z 000000014000ee6a f   mfc100ud:mfc100ud.dll
 0001:0000de70       ?accLocation@CWnd@@UEAAJPEAJ000UtagVARIANT@@@Z 000000014000ee70 f   mfc100ud:mfc100ud.dll
 0001:0000de76       ?accNavigate@CWnd@@UEAAJJUtagVARIANT@@PEAU2@@Z 000000014000ee76 f   mfc100ud:mfc100ud.dll
 0001:0000de7c       ?accHitTest@CWnd@@UEAAJJJPEAUtagVARIANT@@@Z 000000014000ee7c f   mfc100ud:mfc100ud.dll
 0001:0000de82       ?accDoDefaultAction@CWnd@@UEAAJUtagVARIANT@@@Z 000000014000ee82 f   mfc100ud:mfc100ud.dll
 0001:0000de88       ?put_accName@CWnd@@UEAAJUtagVARIANT@@PEA_W@Z 000000014000ee88 f   mfc100ud:mfc100ud.dll
 0001:0000de8e       ?put_accValue@CWnd@@UEAAJUtagVARIANT@@PEA_W@Z 000000014000ee8e f   mfc100ud:mfc100ud.dll
 0001:0000de94       ?SetProxy@CWnd@@UEAAJPEAUIAccessibleProxy@@@Z 000000014000ee94 f   mfc100ud:mfc100ud.dll
 0001:0000de9a       ?CreateAccessibleProxy@CWnd@@UEAAJ_K_JPEA_J@Z 000000014000ee9a f   mfc100ud:mfc100ud.dll
 0001:0000dea0       ?OnCommand@CWnd@@MEAAH_K_J@Z 000000014000eea0 f   mfc100ud:mfc100ud.dll
 0001:0000dea6       ?OnNotify@CPropertyPage@@MEAAH_K_JPEA_J@Z 000000014000eea6 f   mfc100ud:mfc100ud.dll
 0001:0000deac       ?GetSuperWndProcAddr@CWnd@@MEAAPEAP6A_JPEAUHWND__@@I_K_J@ZXZ 000000014000eeac f   mfc100ud:mfc100ud.dll
 0001:0000deb2       ?BeginModalState@CWnd@@UEAAXXZ 000000014000eeb2 f   mfc100ud:mfc100ud.dll
 0001:0000deb8       ?EndModalState@CWnd@@UEAAXXZ 000000014000eeb8 f   mfc100ud:mfc100ud.dll
 0001:0000debe       ?PreTranslateMessage@CPropertyPage@@MEAAHPEAUtagMSG@@@Z 000000014000eebe f   mfc100ud:mfc100ud.dll
 0001:0000dec4       ?OnAmbientProperty@CWnd@@UEAAHPEAVCOleControlSite@@JPEAUtagVARIANT@@@Z 000000014000eec4 f   mfc100ud:mfc100ud.dll
 0001:0000deca       ?WindowProc@CWnd@@MEAA_JI_K_J@Z 000000014000eeca f   mfc100ud:mfc100ud.dll
 0001:0000ded0       ?OnWndMsg@CWnd@@MEAAHI_K_JPEA_J@Z 000000014000eed0 f   mfc100ud:mfc100ud.dll
 0001:0000ded6       ?DefWindowProcW@CWnd@@MEAA_JI_K_J@Z 000000014000eed6 f   mfc100ud:mfc100ud.dll
 0001:0000dedc       ?PostNcDestroy@CWnd@@MEAAXXZ 000000014000eedc f   mfc100ud:mfc100ud.dll
 0001:0000dee2       ?OnChildNotify@CWnd@@MEAAHI_K_JPEA_J@Z 000000014000eee2 f   mfc100ud:mfc100ud.dll
 0001:0000dee8       ?OnTouchInputs@CWnd@@MEAAHIPEAUtagTOUCHINPUT@@@Z 000000014000eee8 f   mfc100ud:mfc100ud.dll
 0001:0000deee       ?OnTouchInput@CWnd@@MEAAHVCPoint@@HHPEAUtagTOUCHINPUT@@@Z 000000014000eeee f   mfc100ud:mfc100ud.dll
 0001:0000def4       ?GetGestureStatus@CWnd@@MEAAKVCPoint@@@Z 000000014000eef4 f   mfc100ud:mfc100ud.dll
 0001:0000defa       ?OnGestureZoom@CWnd@@MEAAHVCPoint@@J@Z 000000014000eefa f   mfc100ud:mfc100ud.dll
 0001:0000df00       ?OnGesturePan@CWnd@@MEAAHVCPoint@@0@Z 000000014000ef00 f   mfc100ud:mfc100ud.dll
 0001:0000df06       ?OnGestureRotate@CWnd@@MEAAHVCPoint@@N@Z 000000014000ef06 f   mfc100ud:mfc100ud.dll
 0001:0000df0c       ?OnGestureTwoFingerTap@CWnd@@MEAAHVCPoint@@@Z 000000014000ef0c f   mfc100ud:mfc100ud.dll
 0001:0000df12       ?OnGesturePressAndTap@CWnd@@MEAAHVCPoint@@J@Z 000000014000ef12 f   mfc100ud:mfc100ud.dll
 0001:0000df18       ?CheckAutoCenter@CDialog@@UEAAHXZ 000000014000ef18 f   mfc100ud:mfc100ud.dll
 0001:0000df1e       ?IsFrameWnd@CWnd@@UEBAHXZ  000000014000ef1e f   mfc100ud:mfc100ud.dll
 0001:0000df24       ?CreateControlContainer@CWnd@@MEAAHPEAPEAVCOleControlContainer@@@Z 000000014000ef24 f   mfc100ud:mfc100ud.dll
 0001:0000df2a       ?CreateControlSite@CWnd@@MEAAHPEAVCOleControlContainer@@PEAPEAVCOleControlSite@@IAEBU_GUID@@@Z 000000014000ef2a f   mfc100ud:mfc100ud.dll
 0001:0000df30       ?SetOccDialogInfo@CDialog@@MEAAHPEAU_AFX_OCC_DIALOG_INFO@@@Z 000000014000ef30 f   mfc100ud:mfc100ud.dll
 0001:0000df36       ?GetOccDialogInfo@CDialog@@MEAAPEAU_AFX_OCC_DIALOG_INFO@@XZ 000000014000ef36 f   mfc100ud:mfc100ud.dll
 0001:0000df3c       ?Create@CDialog@@UEAAHIPEAVCWnd@@@Z 000000014000ef3c f   mfc100ud:mfc100ud.dll
 0001:0000df42       ?Create@CDialog@@UEAAHPEB_WPEAVCWnd@@@Z 000000014000ef42 f   mfc100ud:mfc100ud.dll
 0001:0000df48       ?CreateIndirect@CDialog@@UEAAHPEAXPEAVCWnd@@@Z 000000014000ef48 f   mfc100ud:mfc100ud.dll
 0001:0000df4e       ?CreateIndirect@CDialog@@UEAAHPEBUDLGTEMPLATE@@PEAVCWnd@@PEAX@Z 000000014000ef4e f   mfc100ud:mfc100ud.dll
 0001:0000df54       ?DoModal@CDialog@@UEAA_JXZ 000000014000ef54 f   mfc100ud:mfc100ud.dll
 0001:0000df5a       ?OnInitDialog@CDialog@@UEAAHXZ 000000014000ef5a f   mfc100ud:mfc100ud.dll
 0001:0000df60       ?OnSetFont@CDialog@@UEAAXPEAVCFont@@@Z 000000014000ef60 f   mfc100ud:mfc100ud.dll
 0001:0000df66       ?PreInitDialog@CDialog@@MEAAXXZ 000000014000ef66 f   mfc100ud:mfc100ud.dll
 0001:0000df6c       ?OnReset@CPropertyPage@@UEAAXXZ 000000014000ef6c f   mfc100ud:mfc100ud.dll
 0001:0000df72       ?OnSetActive@CPropertyPage@@UEAAHXZ 000000014000ef72 f   mfc100ud:mfc100ud.dll
 0001:0000df78       ?OnKillActive@CPropertyPage@@UEAAHXZ 000000014000ef78 f   mfc100ud:mfc100ud.dll
 0001:0000df7e       ?OnQueryCancel@CPropertyPage@@UEAAHXZ 000000014000ef7e f   mfc100ud:mfc100ud.dll
 0001:0000df84       ?OnWizardBack@CPropertyPage@@UEAA_JXZ 000000014000ef84 f   mfc100ud:mfc100ud.dll
 0001:0000df8a       ?OnWizardNext@CPropertyPage@@UEAA_JXZ 000000014000ef8a f   mfc100ud:mfc100ud.dll
 0001:0000df90       ?OnWizardFinish@CPropertyPage@@UEAAHXZ 000000014000ef90 f   mfc100ud:mfc100ud.dll
 0001:0000df96       ?OnWizardFinishEx@CPropertyPage@@UEAAPEAUHWND__@@XZ 000000014000ef96 f   mfc100ud:mfc100ud.dll
 0001:0000df9c       ??3CObject@@SAXPEAX@Z      000000014000ef9c f   mfc100ud:mfc100ud.dll
 0001:0000dfa2       ?DDX_Text@@YAXPEAVCDataExchange@@HAEAV?$CStringT@_WV?$StrTraitMFC_DLL@_WV?$ChTraitsCRT@_W@ATL@@@@@ATL@@@Z 000000014000efa2 f   mfc100ud:mfc100ud.dll
 0001:0000dfa8       ?DoDataExchange@CWnd@@MEAAXPEAVCDataExchange@@@Z 000000014000efa8 f   mfc100ud:mfc100ud.dll
 0001:0000dfae       ?GetThisMessageMap@CPropertyPage@@KAPEBUAFX_MSGMAP@@XZ 000000014000efae f   mfc100ud:mfc100ud.dll
 0001:0000dfb4       ?OnOK@CPropertyPage@@UEAAXXZ 000000014000efb4 f   mfc100ud:mfc100ud.dll
 0001:0000dfba       ??4?$CStringT@_WV?$StrTraitMFC_DLL@_WV?$ChTraitsCRT@_W@ATL@@@@@ATL@@QEAAAEAV01@AEBV01@@Z 000000014000efba f   mfc100ud:mfc100ud.dll
 0001:0000dfc0       ?LoadStringW@?$CStringT@_WV?$StrTraitMFC_DLL@_WV?$ChTraitsCRT@_W@ATL@@@@@ATL@@QEAAHI@Z 000000014000efc0 f   mfc100ud:mfc100ud.dll
 0001:0000dfc6       ?GetParent@CWnd@@QEBAPEAV1@XZ 000000014000efc6 f   mfc100ud:mfc100ud.dll
 0001:0000dfcc       ??B?$CSimpleStringT@_W$00@ATL@@QEBAPEB_WXZ 000000014000efcc f   mfc100ud:mfc100ud.dll
 0001:0000dfd2       ?MessageBoxW@CWnd@@QEAAHPEB_W0I@Z 000000014000efd2 f   mfc100ud:mfc100ud.dll
 0001:0000dfd8       ?UpdateData@CWnd@@QEAAHH@Z 000000014000efd8 f   mfc100ud:mfc100ud.dll
 0001:0000dfde       ?SetModified@CPropertyPage@@QEAAXH@Z 000000014000efde f   mfc100ud:mfc100ud.dll
 0001:0000dfe4       ?OnApply@CPropertyPage@@UEAAHXZ 000000014000efe4 f   mfc100ud:mfc100ud.dll
 0001:0000dfea       ?OnCancel@CPropertyPage@@UEAAXXZ 000000014000efea f   mfc100ud:mfc100ud.dll
 0001:0000dff0       ?Compare@?$CStringT@_WV?$StrTraitMFC_DLL@_WV?$ChTraitsCRT@_W@ATL@@@@@ATL@@QEBAHPEB_W@Z 000000014000eff0 f   mfc100ud:mfc100ud.dll
 0001:0000dff6       ?DDV_MinMaxInt@@YAXPEAVCDataExchange@@HHH@Z 000000014000eff6 f   mfc100ud:mfc100ud.dll
 0001:0000dffc       ?DDX_Text@@YAXPEAVCDataExchange@@HAEAH@Z 000000014000effc f   mfc100ud:mfc100ud.dll
 0001:0000e002       ??Y?$CStringT@_WV?$StrTraitMFC_DLL@_WV?$ChTraitsCRT@_W@ATL@@@@@ATL@@QEAAAEAV01@PEB_W@Z 000000014000f002 f   mfc100ud:mfc100ud.dll
 0001:0000e008       ??Y?$CStringT@_WV?$StrTraitMFC_DLL@_WV?$ChTraitsCRT@_W@ATL@@@@@ATL@@QEAAAEAV01@AEBV?$CSimpleStringT@_W$00@1@@Z 000000014000f008 f   mfc100ud:mfc100ud.dll
 0001:0000e00e       ??0?$CStringT@_WV?$StrTraitMFC_DLL@_WV?$ChTraitsCRT@_W@ATL@@@@@ATL@@QEAA@AEBV01@@Z 000000014000f00e f   mfc100ud:mfc100ud.dll
 0001:0000e014       ?Concatenate@?$CSimpleStringT@_W$00@ATL@@KAXAEAV12@PEB_WH1H@Z 000000014000f014 f   mfc100ud:mfc100ud.dll
 0001:0000e01a       ?GetLength@?$CSimpleStringT@_W$00@ATL@@QEBAHXZ 000000014000f01a f   mfc100ud:mfc100ud.dll
 0001:0000e020       ?StringLength@?$CSimpleStringT@_W$00@ATL@@SAHPEB_W@Z 000000014000f020 f   mfc100ud:mfc100ud.dll
 0001:0000e026       ??0?$CStringT@_WV?$StrTraitMFC_DLL@_WV?$ChTraitsCRT@_W@ATL@@@@@ATL@@QEAA@PEAUIAtlStringMgr@1@@Z 000000014000f026 f   mfc100ud:mfc100ud.dll
 0001:0000e02c       ?GetManager@?$CStringT@_WV?$StrTraitMFC_DLL@_WV?$ChTraitsCRT@_W@ATL@@@@@ATL@@QEBAPEAUIAtlStringMgr@2@XZ 000000014000f02c f   mfc100ud:mfc100ud.dll
 0001:0000e032       ?GetThisClass@CPropertySheet@@SAPEAUCRuntimeClass@@XZ 000000014000f032 f   mfc100ud:mfc100ud.dll
 0001:0000e038       ??1CPropertySheet@@UEAA@XZ 000000014000f038 f   mfc100ud:mfc100ud.dll
 0001:0000e03e       ?SetActivePage@CPropertySheet@@QEAAHH@Z 000000014000f03e f   mfc100ud:mfc100ud.dll
 0001:0000e044       ?GetPSP@CPropertyPage@@QEAAAEAU_PROPSHEETPAGEW@@XZ 000000014000f044 f   mfc100ud:mfc100ud.dll
 0001:0000e04a       ?GetPage@CPropertySheet@@QEBAPEAVCPropertyPage@@H@Z 000000014000f04a f   mfc100ud:mfc100ud.dll
 0001:0000e050       ?GetPageCount@CPropertySheet@@QEBAHXZ 000000014000f050 f   mfc100ud:mfc100ud.dll
 0001:0000e056       ?AddPage@CPropertySheet@@QEAAXPEAVCPropertyPage@@@Z 000000014000f056 f   mfc100ud:mfc100ud.dll
 0001:0000e05c       ??0CPropertySheet@@QEAA@IPEAVCWnd@@I@Z 000000014000f05c f   mfc100ud:mfc100ud.dll
 0001:0000e062       ?AssertValid@CPropertySheet@@UEBAXXZ 000000014000f062 f   mfc100ud:mfc100ud.dll
 0001:0000e068       ?Dump@CPropertySheet@@UEBAXAEAVCDumpContext@@@Z 000000014000f068 f   mfc100ud:mfc100ud.dll
 0001:0000e06e       ?OnCmdMsg@CPropertySheet@@UEAAHIHPEAXPEAUAFX_CMDHANDLERINFO@@@Z 000000014000f06e f   mfc100ud:mfc100ud.dll
 0001:0000e074       ?ContinueModal@CPropertySheet@@UEAAHXZ 000000014000f074 f   mfc100ud:mfc100ud.dll
 0001:0000e07a       ?OnCommand@CPropertySheet@@UEAAH_K_J@Z 000000014000f07a f   mfc100ud:mfc100ud.dll
 0001:0000e080       ?OnNotify@CWnd@@MEAAH_K_JPEA_J@Z 000000014000f080 f   mfc100ud:mfc100ud.dll
 0001:0000e086       ?PreTranslateMessage@CPropertySheet@@UEAAHPEAUtagMSG@@@Z 000000014000f086 f   mfc100ud:mfc100ud.dll
 0001:0000e08c       ?CheckAutoCenter@CWnd@@UEAAHXZ 000000014000f08c f   mfc100ud:mfc100ud.dll
 0001:0000e092       ?SetOccDialogInfo@CWnd@@MEAAHPEAU_AFX_OCC_DIALOG_INFO@@@Z 000000014000f092 f   mfc100ud:mfc100ud.dll
 0001:0000e098       ?GetOccDialogInfo@CWnd@@MEAAPEAU_AFX_OCC_DIALOG_INFO@@XZ 000000014000f098 f   mfc100ud:mfc100ud.dll
 0001:0000e09e       ?Create@CPropertySheet@@UEAAHPEAVCWnd@@KK@Z 000000014000f09e f   mfc100ud:mfc100ud.dll
 0001:0000e0a4       ?DoModal@CPropertySheet@@UEAA_JXZ 000000014000f0a4 f   mfc100ud:mfc100ud.dll
 0001:0000e0aa       ?OnInitDialog@CPropertySheet@@UEAAHXZ 000000014000f0aa f   mfc100ud:mfc100ud.dll
 0001:0000e0b0       ?BuildPropPageArray@CPropertySheet@@UEAAXXZ 000000014000f0b0 f   mfc100ud:mfc100ud.dll
 0001:0000e0b6       ??0CPropertySheet@@QEAA@PEB_WPEAVCWnd@@I@Z 000000014000f0b6 f   mfc100ud:mfc100ud.dll
 0001:0000e0bc       ?GetThisMessageMap@CPropertySheet@@KAPEBUAFX_MSGMAP@@XZ 000000014000f0bc f   mfc100ud:mfc100ud.dll
 0001:0000e0c2       ??1CEdit@@UEAA@XZ          000000014000f0c2 f   mfc100ud:mfc100ud.dll
 0001:0000e0c8       ??0CEdit@@QEAA@XZ          000000014000f0c8 f   mfc100ud:mfc100ud.dll
 0001:0000e0ce       ?GetRuntimeClass@CEdit@@UEBAPEAUCRuntimeClass@@XZ 000000014000f0ce f   mfc100ud:mfc100ud.dll
 0001:0000e0d4       ?AssertValid@CWnd@@UEBAXXZ 000000014000f0d4 f   mfc100ud:mfc100ud.dll
 0001:0000e0da       ?Dump@CWnd@@UEBAXAEAVCDumpContext@@@Z 000000014000f0da f   mfc100ud:mfc100ud.dll
 0001:0000e0e0       ?OnCmdMsg@CCmdTarget@@UEAAHIHPEAXPEAUAFX_CMDHANDLERINFO@@@Z 000000014000f0e0 f   mfc100ud:mfc100ud.dll
 0001:0000e0e6       ?PreTranslateMessage@CWnd@@UEAAHPEAUtagMSG@@@Z 000000014000f0e6 f   mfc100ud:mfc100ud.dll
 0001:0000e0ec       ?GetThisMessageMap@CWnd@@KAPEBUAFX_MSGMAP@@XZ 000000014000f0ec f   mfc100ud:mfc100ud.dll
 0001:0000e0f2       ?Register@COleDropTarget@@QEAAHPEAVCWnd@@@Z 000000014000f0f2 f   mfc100ud:mfc100ud.dll
 0001:0000e0f8       ?IsDataAvailable@COleDataObject@@QEAAHGPEAUtagFORMATETC@@@Z 000000014000f0f8 f   mfc100ud:mfc100ud.dll
 0001:0000e0fe       ?AfxAssertFailedLine@@YAHPEBDH@Z 000000014000f0fe f   mfc100ud:mfc100ud.dll
 0001:0000e104       ?IsKindOf@CObject@@QEBAHPEBUCRuntimeClass@@@Z 000000014000f104 f   mfc100ud:mfc100ud.dll
 0001:0000e10a       ?SetWindowTextW@CWnd@@QEAAXPEB_W@Z 000000014000f10a f   mfc100ud:mfc100ud.dll
 0001:0000e110       ?GetGlobalData@COleDataObject@@QEAAPEAXGPEAUtagFORMATETC@@@Z 000000014000f110 f   mfc100ud:mfc100ud.dll
 0001:0000e116       ??1COleDataSource@@UEAA@XZ 000000014000f116 f   mfc100ud:mfc100ud.dll
 0001:0000e11c       ?Format@?$CStringT@_WV?$StrTraitMFC_DLL@_WV?$ChTraitsCRT@_W@ATL@@@@@ATL@@QEAAXPEB_WZZ 000000014000f11c f   mfc100ud:mfc100ud.dll
 0001:0000e122       ?DoDragDrop@COleDataSource@@QEAAKKPEBUtagRECT@@PEAVCOleDropSource@@@Z 000000014000f122 f   mfc100ud:mfc100ud.dll
 0001:0000e128       ?CacheGlobalData@COleDataSource@@QEAAXGPEAXPEAUtagFORMATETC@@@Z 000000014000f128 f   mfc100ud:mfc100ud.dll
 0001:0000e12e       ?Empty@COleDataSource@@QEAAXXZ 000000014000f12e f   mfc100ud:mfc100ud.dll
 0001:0000e134       ??0COleDataSource@@QEAA@XZ 000000014000f134 f   mfc100ud:mfc100ud.dll
 0001:0000e13a       ?GetWindowTextW@CWnd@@QEBAXAEAV?$CStringT@_WV?$StrTraitMFC_DLL@_WV?$ChTraitsCRT@_W@ATL@@@@@ATL@@@Z 000000014000f13a f   mfc100ud:mfc100ud.dll
 0001:0000e140       ?GetSafeHwnd@CWnd@@QEBAPEAUHWND__@@XZ 000000014000f140 f   mfc100ud:mfc100ud.dll
 0001:0000e146       ?OnLButtonDown@CWnd@@IEAAXIVCPoint@@@Z 000000014000f146 f   mfc100ud:mfc100ud.dll
 0001:0000e14c       ?GetThisClass@CButton@@SAPEAUCRuntimeClass@@XZ 000000014000f14c f   mfc100ud:mfc100ud.dll
 0001:0000e152       ??0CButton@@QEAA@XZ        000000014000f152 f   mfc100ud:mfc100ud.dll
 0001:0000e158       ?OnChildNotify@CButton@@MEAAHI_K_JPEA_J@Z 000000014000f158 f   mfc100ud:mfc100ud.dll
 0001:0000e15e       ?Create@CButton@@UEAAHPEB_WKAEBUtagRECT@@PEAVCWnd@@I@Z 000000014000f15e f   mfc100ud:mfc100ud.dll
 0001:0000e164       ?DrawItem@CButton@@UEAAXPEAUtagDRAWITEMSTRUCT@@@Z 000000014000f164 f   mfc100ud:mfc100ud.dll
 0001:0000e16a       ??1CButton@@UEAA@XZ        000000014000f16a f   mfc100ud:mfc100ud.dll
 0001:0000e170       ?OnMouseMove@CWnd@@IEAAXIVCPoint@@@Z 000000014000f170 f   mfc100ud:mfc100ud.dll
 0001:0000e176       ?GetThisClass@CDialogEx@@SAPEAUCRuntimeClass@@XZ 000000014000f176 f   mfc100ud:mfc100ud.dll
 0001:0000e17c       ??0CDialogEx@@QEAA@IPEAVCWnd@@@Z 000000014000f17c f   mfc100ud:mfc100ud.dll
 0001:0000e182       ?AssertValid@CDialog@@UEBAXXZ 000000014000f182 f   mfc100ud:mfc100ud.dll
 0001:0000e188       ?Dump@CDialog@@UEBAXAEAVCDumpContext@@@Z 000000014000f188 f   mfc100ud:mfc100ud.dll
 0001:0000e18e       ?OnCommand@CDialogEx@@MEAAH_K_J@Z 000000014000f18e f   mfc100ud:mfc100ud.dll
 0001:0000e194       ?PreTranslateMessage@CDialogEx@@UEAAHPEAUtagMSG@@@Z 000000014000f194 f   mfc100ud:mfc100ud.dll
 0001:0000e19a       ?OnOK@CDialog@@MEAAXXZ     000000014000f19a f   mfc100ud:mfc100ud.dll
 0001:0000e1a0       ?OnCancel@CDialog@@MEAAXXZ 000000014000f1a0 f   mfc100ud:mfc100ud.dll
 0001:0000e1a6       ??1CDialog@@UEAA@XZ        000000014000f1a6 f   mfc100ud:mfc100ud.dll
 0001:0000e1ac       ??1CBrush@@UEAA@XZ         000000014000f1ac f   mfc100ud:mfc100ud.dll
 0001:0000e1b2       ??1CDialogImpl@@MEAA@XZ    000000014000f1b2 f   mfc100ud:mfc100ud.dll
 0001:0000e1b8       ?GetThisMessageMap@CDialogEx@@KAPEBUAFX_MSGMAP@@XZ 000000014000f1b8 f   mfc100ud:mfc100ud.dll
 0001:0000e1be       ?GetThisClass@CListCtrl@@SAPEAUCRuntimeClass@@XZ 000000014000f1be f   mfc100ud:mfc100ud.dll
 0001:0000e1c4       ??1CListCtrl@@UEAA@XZ      000000014000f1c4 f   mfc100ud:mfc100ud.dll
 0001:0000e1ca       ??0CListCtrl@@QEAA@XZ      000000014000f1ca f   mfc100ud:mfc100ud.dll
 0001:0000e1d0       ?OnChildNotify@CListCtrl@@MEAAHI_K_JPEA_J@Z 000000014000f1d0 f   mfc100ud:mfc100ud.dll
 0001:0000e1d6       ?DrawItem@CListCtrl@@UEAAXPEAUtagDRAWITEMSTRUCT@@@Z 000000014000f1d6 f   mfc100ud:mfc100ud.dll
 0001:0000e1dc       ?GetThisMessageMap@CListCtrl@@KAPEBUAFX_MSGMAP@@XZ 000000014000f1dc f   mfc100ud:mfc100ud.dll
 0001:0000e1e2       ?AfxMessageBox@@YAHPEB_WII@Z 000000014000f1e2 f   mfc100ud:mfc100ud.dll
 0001:0000e1e8       ?GetThisClass@CObject@@SAPEAUCRuntimeClass@@XZ 000000014000f1e8 f   mfc100ud:mfc100ud.dll
 0001:0000e1ee       ??0CObject@@IEAA@XZ        000000014000f1ee f   mfc100ud:mfc100ud.dll
 0001:0000e1f4       ?AssertValid@CObject@@UEBAXXZ 000000014000f1f4 f   mfc100ud:mfc100ud.dll
 0001:0000e1fa       ?Dump@CObject@@UEBAXAEAVCDumpContext@@@Z 000000014000f1fa f   mfc100ud:mfc100ud.dll
 0001:0000e200       ??1CObject@@UEAA@XZ        000000014000f200 f   mfc100ud:mfc100ud.dll
 0001:0000e206       ??0COleDropTarget@@QEAA@XZ 000000014000f206 f   mfc100ud:mfc100ud.dll
 0001:0000e20c       ?GetRuntimeClass@CCmdTarget@@UEBAPEAUCRuntimeClass@@XZ 000000014000f20c f   mfc100ud:mfc100ud.dll
 0001:0000e212       ?AssertValid@COleDropTarget@@UEBAXXZ 000000014000f212 f   mfc100ud:mfc100ud.dll
 0001:0000e218       ?Dump@COleDropTarget@@UEBAXAEAVCDumpContext@@@Z 000000014000f218 f   mfc100ud:mfc100ud.dll
 0001:0000e21e       ?OnFinalRelease@CCmdTarget@@UEAAXXZ 000000014000f21e f   mfc100ud:mfc100ud.dll
 0001:0000e224       ?GetMessageMap@CCmdTarget@@MEBAPEBUAFX_MSGMAP@@XZ 000000014000f224 f   mfc100ud:mfc100ud.dll
 0001:0000e22a       ?GetInterfaceMap@COleDropTarget@@MEBAPEBUAFX_INTERFACEMAP@@XZ 000000014000f22a f   mfc100ud:mfc100ud.dll
 0001:0000e230       ?Revoke@COleDropTarget@@UEAAXXZ 000000014000f230 f   mfc100ud:mfc100ud.dll
 0001:0000e236       ?OnDragScroll@COleDropTarget@@UEAAKPEAVCWnd@@KVCPoint@@@Z 000000014000f236 f   mfc100ud:mfc100ud.dll
 0001:0000e23c       ??1COleDropTarget@@UEAA@XZ 000000014000f23c f   mfc100ud:mfc100ud.dll
 0001:0000e242       ?OnDragEnter@COleDropTarget@@UEAAKPEAVCWnd@@PEAVCOleDataObject@@KVCPoint@@@Z 000000014000f242 f   mfc100ud:mfc100ud.dll
 0001:0000e248       ?GetThisClass@CView@@SAPEAUCRuntimeClass@@XZ 000000014000f248 f   mfc100ud:mfc100ud.dll
 0001:0000e24e       ?AfxAssertValidObject@@YAXPEBVCObject@@PEBDH@Z 000000014000f24e f   mfc100ud:mfc100ud.dll
 0001:0000e254       ?OnDragOver@COleDropTarget@@UEAAKPEAVCWnd@@PEAVCOleDataObject@@KVCPoint@@@Z 000000014000f254 f   mfc100ud:mfc100ud.dll
 0001:0000e25a       ?OnDrop@COleDropTarget@@UEAAHPEAVCWnd@@PEAVCOleDataObject@@KVCPoint@@@Z 000000014000f25a f   mfc100ud:mfc100ud.dll
 0001:0000e260       ?OnDropEx@COleDropTarget@@UEAAKPEAVCWnd@@PEAVCOleDataObject@@KKVCPoint@@@Z 000000014000f260 f   mfc100ud:mfc100ud.dll
 0001:0000e266       ?OnDragLeave@COleDropTarget@@UEAAXPEAVCWnd@@@Z 000000014000f266 f   mfc100ud:mfc100ud.dll
 0001:0000e26c       ?GetThisMessageMap@CWinApp@@KAPEBUAFX_MSGMAP@@XZ 000000014000f26c f   mfc100ud:mfc100ud.dll
 0001:0000e272       ?OnHelp@CWinApp@@IEAAXXZ   000000014000f272 f   mfc100ud:mfc100ud.dll
 0001:0000e278       ?GetBuffer@?$CSimpleStringT@_W$00@ATL@@QEAAPEA_WXZ 000000014000f278 f   mfc100ud:mfc100ud.dll
 0001:0000e27e       ?AppendFormat@?$CStringT@_WV?$StrTraitMFC_DLL@_WV?$ChTraitsCRT@_W@ATL@@@@@ATL@@QEAAXPEB_WZZ 000000014000f27e f   mfc100ud:mfc100ud.dll
 0001:0000e284       ??0CWinApp@@QEAA@PEB_W@Z   000000014000f284 f   mfc100ud:mfc100ud.dll
 0001:0000e28a       ?GetRuntimeClass@CWinApp@@UEBAPEAUCRuntimeClass@@XZ 000000014000f28a f   mfc100ud:mfc100ud.dll
 0001:0000e290       ?AssertValid@CWinApp@@UEBAXXZ 000000014000f290 f   mfc100ud:mfc100ud.dll
 0001:0000e296       ?Dump@CWinApp@@UEBAXAEAVCDumpContext@@@Z 000000014000f296 f   mfc100ud:mfc100ud.dll
 0001:0000e29c       ?GetInterfaceMap@CCmdTarget@@MEBAPEBUAFX_INTERFACEMAP@@XZ 000000014000f29c f   mfc100ud:mfc100ud.dll
 0001:0000e2a2       ?Run@CWinApp@@UEAAHXZ      000000014000f2a2 f   mfc100ud:mfc100ud.dll
 0001:0000e2a8       ?PreTranslateMessage@CWinThread@@UEAAHPEAUtagMSG@@@Z 000000014000f2a8 f   mfc100ud:mfc100ud.dll
 0001:0000e2ae       ?PumpMessage@CWinThread@@UEAAHXZ 000000014000f2ae f   mfc100ud:mfc100ud.dll
 0001:0000e2b4       ?OnIdle@CWinApp@@UEAAHJ@Z  000000014000f2b4 f   mfc100ud:mfc100ud.dll
 0001:0000e2ba       ?IsIdleMessage@CWinThread@@UEAAHPEAUtagMSG@@@Z 000000014000f2ba f   mfc100ud:mfc100ud.dll
 0001:0000e2c0       ?ProcessWndProcException@CWinApp@@UEAA_JPEAVCException@@PEBUtagMSG@@@Z 000000014000f2c0 f   mfc100ud:mfc100ud.dll
 0001:0000e2c6       ?ProcessMessageFilter@CWinThread@@UEAAHHPEAUtagMSG@@@Z 000000014000f2c6 f   mfc100ud:mfc100ud.dll
 0001:0000e2cc       ?GetMainWnd@CWinThread@@UEAAPEAVCWnd@@XZ 000000014000f2cc f   mfc100ud:mfc100ud.dll
 0001:0000e2d2       ?Delete@CWinThread@@UEAAXXZ 000000014000f2d2 f   mfc100ud:mfc100ud.dll
 0001:0000e2d8       ?GetProfileIntW@CWinApp@@UEAAIPEB_W0H@Z 000000014000f2d8 f   mfc100ud:mfc100ud.dll
 0001:0000e2de       ?WriteProfileInt@CWinApp@@UEAAHPEB_W0H@Z 000000014000f2de f   mfc100ud:mfc100ud.dll
 0001:0000e2e4       ?GetProfileStringW@CWinApp@@UEAA?AV?$CStringT@_WV?$StrTraitMFC_DLL@_WV?$ChTraitsCRT@_W@ATL@@@@@ATL@@PEB_W00@Z 000000014000f2e4 f   mfc100ud:mfc100ud.dll
 0001:0000e2ea       ?WriteProfileStringW@CWinApp@@UEAAHPEB_W00@Z 000000014000f2ea f   mfc100ud:mfc100ud.dll
 0001:0000e2f0       ?GetProfileBinary@CWinApp@@UEAAHPEB_W0PEAPEAEPEAI@Z 000000014000f2f0 f   mfc100ud:mfc100ud.dll
 0001:0000e2f6       ?WriteProfileBinary@CWinApp@@UEAAHPEB_W0PEAEI@Z 000000014000f2f6 f   mfc100ud:mfc100ud.dll
 0001:0000e2fc       ?InitLibId@CWinApp@@UEAAXXZ 000000014000f2fc f   mfc100ud:mfc100ud.dll
 0001:0000e302       ?Register@CWinApp@@UEAAHXZ 000000014000f302 f   mfc100ud:mfc100ud.dll
 0001:0000e308       ?Unregister@CWinApp@@UEAAHXZ 000000014000f308 f   mfc100ud:mfc100ud.dll
 0001:0000e30e       ?OpenDocumentFile@CWinApp@@UEAAPEAVCDocument@@PEB_WH@Z 000000014000f30e f   mfc100ud:mfc100ud.dll
 0001:0000e314       ?OpenDocumentFile@CWinApp@@UEAAPEAVCDocument@@PEB_W@Z 000000014000f314 f   mfc100ud:mfc100ud.dll
 0001:0000e31a       ?AddToRecentFileList@CWinApp@@UEAAXPEB_W@Z 000000014000f31a f   mfc100ud:mfc100ud.dll
 0001:0000e320       ?InitApplication@CWinApp@@UEAAHXZ 000000014000f320 f   mfc100ud:mfc100ud.dll
 0001:0000e326       ?SaveAllModified@CWinApp@@UEAAHXZ 000000014000f326 f   mfc100ud:mfc100ud.dll
 0001:0000e32c       ?DoMessageBox@CWinApp@@UEAAHPEB_WII@Z 000000014000f32c f   mfc100ud:mfc100ud.dll
 0001:0000e332       ?DoWaitCursor@CWinApp@@UEAAXH@Z 000000014000f332 f   mfc100ud:mfc100ud.dll
 0001:0000e338       ?OnDDECommand@CWinApp@@UEAAHPEA_W@Z 000000014000f338 f   mfc100ud:mfc100ud.dll
 0001:0000e33e       ?WinHelpW@CWinApp@@UEAAX_KI@Z 000000014000f33e f   mfc100ud:mfc100ud.dll
 0001:0000e344       ?HtmlHelpW@CWinApp@@UEAAX_KI@Z 000000014000f344 f   mfc100ud:mfc100ud.dll
 0001:0000e34a       ?WinHelpInternal@CWinApp@@UEAAX_KI@Z 000000014000f34a f   mfc100ud:mfc100ud.dll
 0001:0000e350       ?RegisterWithRestartManager@CWinApp@@UEAAJPEB_WKP6AKPEAX@Z1KK@Z 000000014000f350 f   mfc100ud:mfc100ud.dll
 0001:0000e356       ?RegisterWithRestartManager@CWinApp@@UEAAJHAEBV?$CStringT@_WV?$StrTraitMFC_DLL@_WV?$ChTraitsCRT@_W@ATL@@@@@ATL@@@Z 000000014000f356 f   mfc100ud:mfc100ud.dll
 0001:0000e35c       ?ApplicationRecoveryCallback@CWinApp@@UEAAKPEAX@Z 000000014000f35c f   mfc100ud:mfc100ud.dll
 0001:0000e362       ?GetDataRecoveryHandler@CWinApp@@UEAAPEAVCDataRecoveryHandler@@XZ 000000014000f362 f   mfc100ud:mfc100ud.dll
 0001:0000e368       ?IsTaskbarInteractionEnabled@CWinApp@@UEAAHXZ 000000014000f368 f   mfc100ud:mfc100ud.dll
 0001:0000e36e       ?RestartInstance@CWinApp@@UEAAHXZ 000000014000f36e f   mfc100ud:mfc100ud.dll
 0001:0000e374       ?LoadAppLangResourceDLL@CWinApp@@UEAAPEAUHINSTANCE__@@XZ 000000014000f374 f   mfc100ud:mfc100ud.dll
 0001:0000e37a       ?LoadSysPolicies@CWinApp@@UEAAHXZ 000000014000f37a f   mfc100ud:mfc100ud.dll
 0001:0000e380       ??1CWinApp@@UEAA@XZ        000000014000f380 f   mfc100ud:mfc100ud.dll
 0001:0000e386       ??3CObject@@SAXPEAXPEBDH@Z 000000014000f386 f   mfc100ud:mfc100ud.dll
 0001:0000e38c       ?SetRegistryKey@CWinApp@@IEAAXPEB_W@Z 000000014000f38c f   mfc100ud:mfc100ud.dll
 0001:0000e392       ?AfxOleInit@@YAHXZ         000000014000f392 f   mfc100ud:mfc100ud.dll
 0001:0000e398       ??0CShellManager@@QEAA@XZ  000000014000f398 f   mfc100ud:mfc100ud.dll
 0001:0000e39e       ??2CObject@@SAPEAX_KPEBDH@Z 000000014000f39e f   mfc100ud:mfc100ud.dll
 0001:0000e3a4       ?AfxEnableControlContainer@@YAXPEAVCOccManager@@@Z 000000014000f3a4 f   mfc100ud:mfc100ud.dll
 0001:0000e3aa       ?InitInstance@CWinApp@@UEAAHXZ 000000014000f3aa f   mfc100ud:mfc100ud.dll
 0001:0000e3b0       ?ExitInstance@CWinApp@@UEAAHXZ 000000014000f3b0 f   mfc100ud:mfc100ud.dll
 0001:0000e3b6       ?GetRuntimeClass@CDialogEx@@UEBAPEAUCRuntimeClass@@XZ 000000014000f3b6 f   mfc100ud:mfc100ud.dll
 0001:0000e3bc       ?LoadIconW@CWinApp@@QEBAPEAUHICON__@@I@Z 000000014000f3bc f   mfc100ud:mfc100ud.dll
 0001:0000e3c2       ?AfxGetApp@@YAPEAVCWinApp@@XZ 000000014000f3c2 f   mfc100ud:mfc100ud.dll
 0001:0000e3c8       ??0?$CStringT@_WV?$StrTraitMFC_DLL@_WV?$ChTraitsCRT@_W@ATL@@@@@ATL@@QEAA@PEB_W@Z 000000014000f3c8 f   mfc100ud:mfc100ud.dll
 0001:0000e3ce       ??0CDialog@@QEAA@IPEAVCWnd@@@Z 000000014000f3ce f   mfc100ud:mfc100ud.dll
 0001:0000e3d4       ?GetRuntimeClass@CDialog@@UEBAPEAUCRuntimeClass@@XZ 000000014000f3d4 f   mfc100ud:mfc100ud.dll
 0001:0000e3da       ?PreTranslateMessage@CDialog@@UEAAHPEAUtagMSG@@@Z 000000014000f3da f   mfc100ud:mfc100ud.dll
 0001:0000e3e0       ?DDX_Control@@YAXPEAVCDataExchange@@HAEAVCWnd@@@Z 000000014000f3e0 f   mfc100ud:mfc100ud.dll
 0001:0000e3e6       ?GetThisMessageMap@CDialog@@KAPEBUAFX_MSGMAP@@XZ 000000014000f3e6 f   mfc100ud:mfc100ud.dll
 0001:0000e3ec       ?SetIcon@CWnd@@QEAAPEAUHICON__@@PEAU2@H@Z 000000014000f3ec f   mfc100ud:mfc100ud.dll
 0001:0000e3f2       ?AppendMenuW@CMenu@@QEAAHI_KPEB_W@Z 000000014000f3f2 f   mfc100ud:mfc100ud.dll
 0001:0000e3f8       ?IsEmpty@?$CSimpleStringT@_W$00@ATL@@QEBA_NXZ 000000014000f3f8 f   mfc100ud:mfc100ud.dll
 0001:0000e3fe       ?GetSystemMenu@CWnd@@QEBAPEAVCMenu@@H@Z 000000014000f3fe f   mfc100ud:mfc100ud.dll
 0001:0000e404       ?OnSysCommand@CWnd@@IEAAXI_J@Z 000000014000f404 f   mfc100ud:mfc100ud.dll
 0001:0000e40a       ?OnPaint@CDialog@@IEAAXXZ  000000014000f40a f   mfc100ud:mfc100ud.dll
 0001:0000e410       ??1CPaintDC@@UEAA@XZ       000000014000f410 f   mfc100ud:mfc100ud.dll
 0001:0000e416       ?DrawIcon@CDC@@QEAAHHHPEAUHICON__@@@Z 000000014000f416 f   mfc100ud:mfc100ud.dll
 0001:0000e41c       ?GetClientRect@CWnd@@QEBAXPEAUtagRECT@@@Z 000000014000f41c f   mfc100ud:mfc100ud.dll
 0001:0000e422       ?SendMessageW@CWnd@@QEBA_JI_K_J@Z 000000014000f422 f   mfc100ud:mfc100ud.dll
 0001:0000e428       ?GetSafeHdc@CDC@@QEBAPEAUHDC__@@XZ 000000014000f428 f   mfc100ud:mfc100ud.dll
 0001:0000e42e       ??0CPaintDC@@QEAA@PEAVCWnd@@@Z 000000014000f42e f   mfc100ud:mfc100ud.dll
 0001:0000e434       ?IsIconic@CWnd@@QEBAHXZ    000000014000f434 f   mfc100ud:mfc100ud.dll
 0001:0000e43a       ??1CClientDC@@UEAA@XZ      000000014000f43a f   mfc100ud:mfc100ud.dll
 0001:0000e440       ??1CDC@@UEAA@XZ            000000014000f440 f   mfc100ud:mfc100ud.dll
 0001:0000e446       ?BitBlt@CDC@@QEAAHHHHHPEAV1@HHK@Z 000000014000f446 f   mfc100ud:mfc100ud.dll
 0001:0000e44c       ?SelectObject@CDC@@QEAAPEAVCBitmap@@PEAV2@@Z 000000014000f44c f   mfc100ud:mfc100ud.dll
 0001:0000e452       ?CreateCompatibleDC@CDC@@QEAAHPEAV1@@Z 000000014000f452 f   mfc100ud:mfc100ud.dll
 0001:0000e458       ??0CDC@@QEAA@XZ            000000014000f458 f   mfc100ud:mfc100ud.dll
 0001:0000e45e       ??0CClientDC@@QEAA@PEAVCWnd@@@Z 000000014000f45e f   mfc100ud:mfc100ud.dll
 0001:0000e464       ?FromHandle@CBitmap@@SAPEAV1@PEAUHBITMAP__@@@Z 000000014000f464 f   mfc100ud:mfc100ud.dll
 0001:0000e46a       ?OpenClipboard@CWnd@@QEAAHXZ 000000014000f46a f   mfc100ud:mfc100ud.dll
 0001:0000e470       ?OnClipboardUpdate@CWnd@@IEAAXXZ 000000014000f470 f   mfc100ud:mfc100ud.dll
 0001:0000e476       ?MoveWindow@CWnd@@QEAAXHHHHH@Z 000000014000f476 f   mfc100ud:mfc100ud.dll
 0001:0000e47c       ?ShowWindow@CWnd@@QEAAHH@Z 000000014000f47c f   mfc100ud:mfc100ud.dll
 0001:0000e482       ?GetWindowRect@CWnd@@QEBAXPEAUtagRECT@@@Z 000000014000f482 f   mfc100ud:mfc100ud.dll
 0001:0000e488       ?FromHandle@CWnd@@SAPEAV1@PEAUHWND__@@@Z 000000014000f488 f   mfc100ud:mfc100ud.dll
 0001:0000e48e       ?SetTimer@CWnd@@QEAA_K_KIP6AXPEAUHWND__@@I0K@Z@Z 000000014000f48e f   mfc100ud:mfc100ud.dll
 0001:0000e494       ?OnTimer@CWnd@@IEAAX_K@Z   000000014000f494 f   mfc100ud:mfc100ud.dll
 0001:0000e49a       ?MoveWindow@CWnd@@QEAAXPEBUtagRECT@@H@Z 000000014000f49a f   mfc100ud:mfc100ud.dll
 0001:0000e4a0       ?OnDestroy@CWnd@@IEAAXXZ   000000014000f4a0 f   mfc100ud:mfc100ud.dll
 0001:0000e4a6       ?OnDropFiles@CWnd@@IEAAXPEAUHDROP__@@@Z 000000014000f4a6 f   mfc100ud:mfc100ud.dll
 0001:0000e4ac       ?IsWindowVisible@CWnd@@QEBAHXZ 000000014000f4ac f   mfc100ud:mfc100ud.dll
 0001:0000e4b2       ?OnCopyData@CWnd@@IEAAHPEAV1@PEAUtagCOPYDATASTRUCT@@@Z 000000014000f4b2 f   mfc100ud:mfc100ud.dll
 0001:0000e4b8       ??0CWnd@@QEAA@XZ           000000014000f4b8 f   mfc100ud:mfc100ud.dll
 0001:0000e4be       ?GetRuntimeClass@CLinkCtrl@@UEBAPEAUCRuntimeClass@@XZ 000000014000f4be f   mfc100ud:mfc100ud.dll
 0001:0000e4c4       ?GetMessageMap@CWnd@@MEBAPEBUAFX_MSGMAP@@XZ 000000014000f4c4 f   mfc100ud:mfc100ud.dll
 0001:0000e4ca       ?Create@CLinkCtrl@@UEAAHPEB_WKAEBUtagRECT@@PEAVCWnd@@I@Z 000000014000f4ca f   mfc100ud:mfc100ud.dll
 0001:0000e4d0       ?Create@CLinkCtrl@@UEAAHKAEBUtagRECT@@PEAVCWnd@@I@Z 000000014000f4d0 f   mfc100ud:mfc100ud.dll
 0001:0000e4d6       ?CreateEx@CLinkCtrl@@UEAAHPEB_WKKAEBUtagRECT@@PEAVCWnd@@I@Z 000000014000f4d6 f   mfc100ud:mfc100ud.dll
 0001:0000e4dc       ?CreateEx@CLinkCtrl@@UEAAHKKAEBUtagRECT@@PEAVCWnd@@I@Z 000000014000f4dc f   mfc100ud:mfc100ud.dll
 0001:0000e4e2       ??1CWnd@@UEAA@XZ           000000014000f4e2 f   mfc100ud:mfc100ud.dll
 0001:0000e4e8       ?GetThisClass@CDialog@@SAPEAUCRuntimeClass@@XZ 000000014000f4e8 f   mfc100ud:mfc100ud.dll
 0001:0000e4ee       ?DDX_Radio@@YAXPEAVCDataExchange@@HAEAH@Z 000000014000f4ee f   mfc100ud:mfc100ud.dll
 0001:0000e4f4       ?SetCheck@CButton@@QEAAXH@Z 000000014000f4f4 f   mfc100ud:mfc100ud.dll
 0001:0000e4fa       ?GetStyle@CWnd@@QEBAKXZ    000000014000f4fa f   mfc100ud:mfc100ud.dll
 0001:0000e500       ?GetDlgItem@CWnd@@QEBAPEAV1@H@Z 000000014000f500 f   mfc100ud:mfc100ud.dll
 0001:0000e506       ?GetThisClass@CWnd@@SAPEAUCRuntimeClass@@XZ 000000014000f506 f   mfc100ud:mfc100ud.dll
 0001:0000e50c       ?AfxRegisterWndClass@@YAPEB_WIPEAUHICON__@@PEAUHBRUSH__@@0@Z 000000014000f50c f   mfc100ud:mfc100ud.dll
 0001:0000e512       ?AfxIsValidString@@YAHPEB_WH@Z 000000014000f512 f   mfc100ud:mfc100ud.dll
 0001:0000e518       ?AfxGetResourceHandle@@YAPEAUHINSTANCE__@@XZ 000000014000f518 f   mfc100ud:mfc100ud.dll
 0001:0000e51e       ?Delete@CException@@QEAAXXZ 000000014000f51e f   mfc100ud:mfc100ud.dll
 0001:0000e524       ?KillTimer@CWnd@@QEAAH_K@Z 000000014000f524 f   mfc100ud:mfc100ud.dll
 0001:0000e52a       ?AfxGetMainWnd@@YAPEAVCWnd@@XZ 000000014000f52a f   mfc100ud:mfc100ud.dll
 0001:0000e530       ?GetSubMenu@CMenu@@QEBAPEAV1@H@Z 000000014000f530 f   mfc100ud:mfc100ud.dll
 0001:0000e536       ??1CMenu@@UEAA@XZ          000000014000f536 f   mfc100ud:mfc100ud.dll
 0001:0000e53c       ?LoadMenuW@CMenu@@QEAAHI@Z 000000014000f53c f   mfc100ud:mfc100ud.dll
 0001:0000e542       ??0CMenu@@QEAA@XZ          000000014000f542 f   mfc100ud:mfc100ud.dll
 0001:0000e548       ?OnSettingChange@CWnd@@IEAAXIPEB_W@Z 000000014000f548 f   mfc100ud:mfc100ud.dll
 0001:0000e54e       ?GetMenuItemID@CMenu@@QEBAIH@Z 000000014000f54e f   mfc100ud:mfc100ud.dll
 0001:0000e554       ?DestroyMenu@CMenu@@QEAAHXZ 000000014000f554 f   mfc100ud:mfc100ud.dll
 0001:0000e55a       ?PostMessageW@CWnd@@QEAAHI_K_J@Z 000000014000f55a f   mfc100ud:mfc100ud.dll
 0001:0000e560       ?SetForegroundWindow@CWnd@@QEAAHXZ 000000014000f560 f   mfc100ud:mfc100ud.dll
 0001:0000e566       ?SetParent@CWnd@@QEAAPEAV1@PEAV1@@Z 000000014000f566 f   mfc100ud:mfc100ud.dll
 0001:0000e56c       ?ModifyStyle@CWnd@@QEAAHKKI@Z 000000014000f56c f   mfc100ud:mfc100ud.dll
 0001:0000e572       ?SetActiveWindow@CWnd@@QEAAPEAV1@XZ 000000014000f572 f   mfc100ud:mfc100ud.dll
 0001:0000e578       ?RedrawWindow@CWnd@@QEAAHPEBUtagRECT@@PEAVCRgn@@I@Z 000000014000f578 f   mfc100ud:mfc100ud.dll
 0001:0000e57e       ?GetRuntimeClass@CObject@@UEBAPEAUCRuntimeClass@@XZ 000000014000f57e f   mfc100ud:mfc100ud.dll
 0001:0000e584       ??_V@YAXPEAX@Z             000000014000f584 f   mfc100ud:mfc100ud.dll
 0001:0000e58a       ?ReadCount@CArchive@@QEAA_KXZ 000000014000f58a f   mfc100ud:mfc100ud.dll
 0001:0000e590       ?WriteCount@CArchive@@QEAAX_K@Z 000000014000f590 f   mfc100ud:mfc100ud.dll
 0001:0000e596       ?IsStoring@CArchive@@QEBAHXZ 000000014000f596 f   mfc100ud:mfc100ud.dll
 0001:0000e59c       ?GetDepth@CDumpContext@@QEBAHXZ 000000014000f59c f   mfc100ud:mfc100ud.dll
 0001:0000e5a2       ??6CDumpContext@@QEAAAEAV0@_J@Z 000000014000f5a2 f   mfc100ud:mfc100ud.dll
 0001:0000e5a8       ??6CDumpContext@@QEAAAEAV0@PEBD@Z 000000014000f5a8 f   mfc100ud:mfc100ud.dll
 0001:0000e5ae       ?AfxIsValidAddress@@YAHPEBX_KH@Z 000000014000f5ae f   mfc100ud:mfc100ud.dll
 0001:0000e5b4       ??_U@YAPEAX_K@Z            000000014000f5b4 f   mfc100ud:mfc100ud.dll
 0001:0000e5ba       ??_U@YAPEAX_KPEBDH@Z       000000014000f5ba f   mfc100ud:mfc100ud.dll
 0001:0000e5c0       ?AfxThrowInvalidArgException@@YAXXZ 000000014000f5c0 f   mfc100ud:mfc100ud.dll
 0001:0000e5c6       ?AfxThrowMemoryException@@YAXXZ 000000014000f5c6 f   mfc100ud:mfc100ud.dll
 0001:0000e5cc       ?EnsureRead@CArchive@@QEAAXPEAXI@Z 000000014000f5cc f   mfc100ud:mfc100ud.dll
 0001:0000e5d2       ?Write@CArchive@@QEAAXPEBXI@Z 000000014000f5d2 f   mfc100ud:mfc100ud.dll
 0001:0000e5e0       ??_Estringdispid@CComTypeInfoHolder@ATL@@QEAAPEAXI@Z 000000014000f5e0 f i mfcs100ud:nolib.obj
 0001:0000e670       ??1stringdispid@CComTypeInfoHolder@ATL@@QEAA@XZ 000000014000f670 f i mfcs100ud:nolib.obj
 0001:0000e690       ??1CComBSTR@ATL@@QEAA@XZ   000000014000f690 f i mfcs100ud:nolib.obj
 0001:0000e7c0       wWinMainCRTStartup         000000014000f7c0 f   msvcrtd:wcrtexew.obj
 0001:0000eb10       NtCurrentTeb               000000014000fb10 f i msvcrtd:wcrtexew.obj
 0001:0000ebc0       _RTC_InitBase              000000014000fbc0 f   msvcrtd:_init_.obj
 0001:0000ec00       _RTC_Shutdown              000000014000fc00 f   msvcrtd:_init_.obj
 0001:0000ec24       __CxxFrameHandler3         000000014000fc24 f   msvcrtd:MSVCR100D.dll
 0001:0000ec30       ??0type_info@@AEAA@AEBV0@@Z 000000014000fc30 f   msvcrtd:ti_inst.obj
 0001:0000ec50       ??_Etype_info@@UEAAPEAXI@Z 000000014000fc50 f i msvcrtd:ti_inst.obj
 0001:0000ece0       ??4type_info@@AEAAAEAV0@AEBV0@@Z 000000014000fce0 f   msvcrtd:ti_inst.obj
 0001:0000ecf0       _RTC_CheckStackVars        000000014000fcf0 f   msvcrtd:_stack_.obj
 0001:0000ed80       _RTC_AllocaHelper          000000014000fd80 f   msvcrtd:_stack_.obj
 0001:0000edc0       _RTC_CheckStackVars2       000000014000fdc0 f   msvcrtd:_stack_.obj
 0001:0000eed0       __GSHandlerCheck_EH        000000014000fed0 f   msvcrtd:gshandlereh.obj
 0001:0000ef78       wcscpy                     000000014000ff78 f   msvcrtd:MSVCR100D.dll
 0001:0000ef7e       wcslen                     000000014000ff7e f   msvcrtd:MSVCR100D.dll
 0001:0000efa0       __security_check_cookie    000000014000ffa0 f   msvcrtd:amdsecgs.obj
 0001:0000efc0       wcscpy_s                   000000014000ffc0 f   msvcrtd:MSVCR100D.dll
 0001:0000efd0       __GSHandlerCheck           000000014000ffd0 f   msvcrtd:gshandler.obj
 0001:0000f010       __GSHandlerCheckCommon     0000000140010010 f   msvcrtd:gshandler.obj
 0001:0000f108       memset                     0000000140010108 f   msvcrtd:MSVCR100D.dll
 0001:0000f10e       _vsnwprintf                000000014001010e f   msvcrtd:MSVCR100D.dll
 0001:0000f120       _onexit                    0000000140010120 f   msvcrtd:atonexit.obj
 0001:0000f1e0       atexit                     00000001400101e0 f   msvcrtd:atonexit.obj
 0001:0000f214       fclose                     0000000140010214 f   msvcrtd:MSVCR100D.dll
 0001:0000f21a       fprintf                    000000014001021a f   msvcrtd:MSVCR100D.dll
 0001:0000f220       fopen_s                    0000000140010220 f   msvcrtd:MSVCR100D.dll
 0001:0000f226       wcsrchr                    0000000140010226 f   msvcrtd:MSVCR100D.dll
 0001:0000f22c       wcscmp                     000000014001022c f   msvcrtd:MSVCR100D.dll
 0001:0000f232       wcscat_s                   0000000140010232 f   msvcrtd:MSVCR100D.dll
 0001:0000f238       wcsncpy_s                  0000000140010238 f   msvcrtd:MSVCR100D.dll
 0001:0000f23e       memcpy_s                   000000014001023e f   msvcrtd:MSVCR100D.dll
 0001:0000f250       ??_M@YAXPEAX_KHP6AX0@Z@Z   0000000140010250 f   msvcrtd:ehvecdtr.obj
 0001:0000f300       ?__ArrayUnwind@@YAXPEAX_KHP6AX0@Z@Z 0000000140010300 f   msvcrtd:ehvecdtr.obj
 0001:0000f3a0       ?__CxxUnhandledExceptionFilter@@YAJPEAU_EXCEPTION_POINTERS@@@Z 00000001400103a0 f   msvcrtd:unhandld.obj
 0001:0000f420       __CxxSetUnhandledExceptionFilter 0000000140010420 f   msvcrtd:unhandld.obj
 0001:0000f438       _configthreadlocale        0000000140010438 f   msvcrtd:MSVCR100D.dll
 0001:0000f43e       __setusermatherr           000000014001043e f   msvcrtd:MSVCR100D.dll
 0001:0000f450       _matherr                   0000000140010450 f   msvcrtd:merr.obj
 0001:0000f460       _wsetargv                  0000000140010460 f   msvcrtd:wdllargv.obj
 0001:0000f470       _RTC_Initialize            0000000140010470 f   msvcrtd:_initsect_.obj
 0001:0000f4b0       _RTC_Terminate             00000001400104b0 f   msvcrtd:_initsect_.obj
 0001:0000f4ee       __set_app_type             00000001400104ee f   msvcrtd:MSVCR100D.dll
 0001:0000f4f4       _amsg_exit                 00000001400104f4 f   msvcrtd:MSVCR100D.dll
 0001:0000f4fa       __wgetmainargs             00000001400104fa f   msvcrtd:MSVCR100D.dll
 0001:0000f500       __security_init_cookie     0000000140010500 f   msvcrtd:gs_support.obj
 0001:0000f60e       __C_specific_handler       000000014001060e f   msvcrtd:MSVCR100D.dll
 0001:0000f614       _XcptFilter                0000000140010614 f   msvcrtd:MSVCR100D.dll
 0001:0000f61a       _exit                      000000014001061a f   msvcrtd:MSVCR100D.dll
 0001:0000f620       _cexit                     0000000140010620 f   msvcrtd:MSVCR100D.dll
 0001:0000f626       exit                       0000000140010626 f   msvcrtd:MSVCR100D.dll
 0001:0000f62c       _CrtSetCheckCount          000000014001062c f   msvcrtd:MSVCR100D.dll
 0001:0000f640       _ValidateImageBase         0000000140010640 f   msvcrtd:pesect.obj
 0001:0000f6c0       _FindPESection             00000001400106c0 f   msvcrtd:pesect.obj
 0001:0000f770       _IsNonwritableInCurrentImage 0000000140010770 f   msvcrtd:pesect.obj
 0001:0000f7fe       _CrtDbgReportW             00000001400107fe f   msvcrtd:MSVCR100D.dll
 0001:0000f804       _initterm                  0000000140010804 f   msvcrtd:MSVCR100D.dll
 0001:0000f80a       _initterm_e                000000014001080a f   msvcrtd:MSVCR100D.dll
 0001:0000f810       _RTC_NumErrors             0000000140010810 f   msvcrtd:_userapi_.obj
 0001:0000f820       _RTC_GetErrDesc            0000000140010820 f   msvcrtd:_userapi_.obj
 0001:0000f840       _RTC_SetErrorType          0000000140010840 f   msvcrtd:_userapi_.obj
 0001:0000f860       _RTC_SetErrorFunc          0000000140010860 f   msvcrtd:_userapi_.obj
 0001:0000f880       _RTC_SetErrorFuncW         0000000140010880 f   msvcrtd:_userapi_.obj
 0001:0000f8a0       ?_RTC_GetErrorFunc@@YAP6AHHPEBDH00ZZPEBX@Z 00000001400108a0 f   msvcrtd:_userapi_.obj
 0001:0000f8b0       ?_RTC_GetErrorFuncW@@YAP6AHHPEB_WH00ZZPEBX@Z 00000001400108b0 f   msvcrtd:_userapi_.obj
 0001:0000f8b8       _CRT_RTC_INITW             00000001400108b8 f   msvcrtd:MSVCR100D.dll
 0001:0000f8c0       ?_RTC_Failure@@YAXPEAXH@Z  00000001400108c0 f   msvcrtd:_error_.obj
 0001:0000fc20       ?_RTC_StackFailure@@YAXPEAXPEBD@Z 0000000140010c20 f   msvcrtd:_error_.obj
 0001:0000fd30       ?_RTC_AllocaFailure@@YAXPEAXPEAU_RTC_ALLOCA_NODE@@H@Z 0000000140010d30 f   msvcrtd:_error_.obj
 0001:0000ff70       _RTC_UninitUse             0000000140010f70 f   msvcrtd:_error_.obj
 0001:00010080       __report_gsfailure         0000000140011080 f   msvcrtd:gs_report.obj
 0001:000101ca       _unlock                    00000001400111ca f   msvcrtd:MSVCR100D.dll
 0001:000101d0       __dllonexit                00000001400111d0 f   msvcrtd:MSVCR100D.dll
 0001:000101d6       _lock                      00000001400111d6 f   msvcrtd:MSVCR100D.dll
 0001:000101dc       ?terminate@@YAXXZ          00000001400111dc f   msvcrtd:MSVCR100D.dll
 0001:000101e2       ?_type_info_dtor_internal_method@type_info@@QEAAXXZ 00000001400111e2 f   msvcrtd:MSVCR100D.dll
 0001:000101e2       ??1type_info@@UEAA@XZ      00000001400111e2 f   msvcrtd:MSVCR100D.dll
 0001:000101f0       ?_RTC_GetSrcLine@@YAHPEAEPEA_WKPEAH1K@Z 00000001400111f0 f   msvcrtd:_pdblkup_.obj
 0001:00010996       __crt_debugger_hook        0000000140011996 f   msvcrtd:MSVCR100D.dll
 0001:0001099c       _wmakepath_s               000000014001199c f   msvcrtd:MSVCR100D.dll
 0001:000109a2       _wsplitpath_s              00000001400119a2 f   msvcrtd:MSVCR100D.dll
 0001:000109a8       GlobalUnlock               00000001400119a8 f   kernel32:KERNEL32.dll
 0001:000109ae       GlobalLock                 00000001400119ae f   kernel32:KERNEL32.dll
 0001:000109b4       GlobalFree                 00000001400119b4 f   kernel32:KERNEL32.dll
 0001:000109ba       OutputDebugStringW         00000001400119ba f   kernel32:KERNEL32.dll
 0001:000109c0       GlobalAlloc                00000001400119c0 f   kernel32:KERNEL32.dll
 0001:000109c6       Sleep                      00000001400119c6 f   kernel32:KERNEL32.dll
 0001:000109cc       GetCurrentProcess          00000001400119cc f   kernel32:KERNEL32.dll
 0001:000109d2       CreateFileW                00000001400119d2 f   kernel32:KERNEL32.dll
 0001:000109d8       GetCurrentProcessId        00000001400119d8 f   kernel32:KERNEL32.dll
 0001:000109de       GetCurrentThreadId         00000001400119de f   kernel32:KERNEL32.dll
 0001:000109e4       CreateDirectoryW           00000001400119e4 f   kernel32:KERNEL32.dll
 0001:000109ea       GetTempPathW               00000001400119ea f   kernel32:KERNEL32.dll
 0001:000109f0       GetLocalTime               00000001400119f0 f   kernel32:KERNEL32.dll
 0001:000109f6       GetModuleFileNameW         00000001400119f6 f   kernel32:KERNEL32.dll
 0001:000109fc       GetModuleHandleExW         00000001400119fc f   kernel32:KERNEL32.dll
 0001:00010a02       SetErrorMode               0000000140011a02 f   kernel32:KERNEL32.dll
 0001:00010a08       GetCommandLineW            0000000140011a08 f   kernel32:KERNEL32.dll
 0001:00010a0e       SetUnhandledExceptionFilter 0000000140011a0e f   kernel32:KERNEL32.dll
 0001:00010a14       GetLastError               0000000140011a14 f   kernel32:KERNEL32.dll
 0001:00010a1a       CopyFileW                  0000000140011a1a f   kernel32:KERNEL32.dll
 0001:00010a20       FindNextFileW              0000000140011a20 f   kernel32:KERNEL32.dll
 0001:00010a26       FindFirstFileW             0000000140011a26 f   kernel32:KERNEL32.dll
 0001:00010a2c       DeleteFileW                0000000140011a2c f   kernel32:KERNEL32.dll
 0001:00010a32       CloseHandle                0000000140011a32 f   kernel32:KERNEL32.dll
 0001:00010a38       UnmapViewOfFile            0000000140011a38 f   kernel32:KERNEL32.dll
 0001:00010a3e       MapViewOfFile              0000000140011a3e f   kernel32:KERNEL32.dll
 0001:00010a44       OpenFileMappingW           0000000140011a44 f   kernel32:KERNEL32.dll
 0001:00010a4a       GetVersionExW              0000000140011a4a f   kernel32:KERNEL32.dll
 0001:00010a50       lstrlenW                   0000000140011a50 f   kernel32:KERNEL32.dll
 0001:00010a56       GetVersion                 0000000140011a56 f   kernel32:KERNEL32.dll
 0001:00010a5c       EncodePointer              0000000140011a5c f   kernel32:KERNEL32.dll
 0001:00010a62       GetStartupInfoW            0000000140011a62 f   kernel32:KERNEL32.dll
 0001:00010a68       DecodePointer              0000000140011a68 f   kernel32:KERNEL32.dll
 0001:00010a6e       QueryPerformanceCounter    0000000140011a6e f   kernel32:KERNEL32.dll
 0001:00010a74       GetTickCount               0000000140011a74 f   kernel32:KERNEL32.dll
 0001:00010a7a       GetSystemTimeAsFileTime    0000000140011a7a f   kernel32:KERNEL32.dll
 0001:00010a80       WideCharToMultiByte        0000000140011a80 f   kernel32:KERNEL32.dll
 0001:00010a86       IsDebuggerPresent          0000000140011a86 f   kernel32:KERNEL32.dll
 0001:00010a8c       MultiByteToWideChar        0000000140011a8c f   kernel32:KERNEL32.dll
 0001:00010a92       RaiseException             0000000140011a92 f   kernel32:KERNEL32.dll
 0001:00010a98       lstrlenA                   0000000140011a98 f   kernel32:KERNEL32.dll
 0001:00010a9e       GetProcAddress             0000000140011a9e f   kernel32:KERNEL32.dll
 0001:00010aa4       LoadLibraryW               0000000140011aa4 f   kernel32:KERNEL32.dll
 0001:00010aaa       TerminateProcess           0000000140011aaa f   kernel32:KERNEL32.dll
 0001:00010ab0       UnhandledExceptionFilter   0000000140011ab0 f   kernel32:KERNEL32.dll
 0001:00010ab6       RtlVirtualUnwind           0000000140011ab6 f   kernel32:KERNEL32.dll
 0001:00010abc       RtlLookupFunctionEntry     0000000140011abc f   kernel32:KERNEL32.dll
 0001:00010ac2       RtlCaptureContext          0000000140011ac2 f   kernel32:KERNEL32.dll
 0001:00010ac8       HeapFree                   0000000140011ac8 f   kernel32:KERNEL32.dll
 0001:00010ace       HeapAlloc                  0000000140011ace f   kernel32:KERNEL32.dll
 0001:00010ad4       GetProcessHeap             0000000140011ad4 f   kernel32:KERNEL32.dll
 0001:00010ada       VirtualQuery               0000000140011ada f   kernel32:KERNEL32.dll
 0001:00010ae0       GetModuleHandleW           0000000140011ae0 f   kernel32:KERNEL32.dll
 0001:00010ae6       FreeLibrary                0000000140011ae6 f   kernel32:KERNEL32.dll
 0001:00010aec       PeekMessageW               0000000140011aec f   user32:USER32.dll
 0001:00010af2       SendMessageW               0000000140011af2 f   user32:USER32.dll
 0001:00010af8       IsWindow                   0000000140011af8 f   user32:USER32.dll
 0001:00010afe       MessageBoxW                0000000140011afe f   user32:USER32.dll
 0001:00010b04       GetSystemMetrics           0000000140011b04 f   user32:USER32.dll
 0001:00010b0a       CloseClipboard             0000000140011b0a f   user32:USER32.dll
 0001:00010b10       GetClipboardData           0000000140011b10 f   user32:USER32.dll
 0001:00010b16       IsClipboardFormatAvailable 0000000140011b16 f   user32:USER32.dll
 0001:00010b1c       FindWindowW                0000000140011b1c f   user32:USER32.dll
 0001:00010b22       DestroyIcon                0000000140011b22 f   user32:USER32.dll
 0001:00010b28       LoadImageW                 0000000140011b28 f   user32:USER32.dll
 0001:00010b2e       LoadIconW                  0000000140011b2e f   user32:USER32.dll
 0001:00010b34       SetMenuDefaultItem         0000000140011b34 f   user32:USER32.dll
 0001:00010b3a       TrackPopupMenu             0000000140011b3a f   user32:USER32.dll
 0001:00010b40       GetCursorPos               0000000140011b40 f   user32:USER32.dll
 0001:00010b46       GetWindowRect              0000000140011b46 f   user32:USER32.dll
 0001:00010b4c       GetClassNameW              0000000140011b4c f   user32:USER32.dll
 0001:00010b52       SystemParametersInfoW      0000000140011b52 f   user32:USER32.dll
 0001:00010b58       EnumChildWindows           0000000140011b58 f   user32:USER32.dll
 0001:00010b5e       DrawAnimatedRects          0000000140011b5e f   user32:USER32.dll
 0001:00010b64       RegisterWindowMessageW     0000000140011b64 f   user32:USER32.dll
 0001:00010b6a       RegCloseKey                0000000140011b6a f   advapi32:ADVAPI32.dll
 0001:00010b70       RegSetValueExW             0000000140011b70 f   advapi32:ADVAPI32.dll
 0001:00010b76       RegOpenKeyExW              0000000140011b76 f   advapi32:ADVAPI32.dll
 0001:00010b7c       RegDeleteValueW            0000000140011b7c f   advapi32:ADVAPI32.dll
 0001:00010b82       DragQueryFileW             0000000140011b82 f   shell32:SHELL32.dll
 0001:00010b88       SHChangeNotifyRegister     0000000140011b88 f   shell32:SHELL32.dll
 0001:00010b8e       SHGetPathFromIDListW       0000000140011b8e f   shell32:SHELL32.dll
 0001:00010b94       ShellExecuteW              0000000140011b94 f   shell32:SHELL32.dll
 0001:00010b9a       Shell_NotifyIconW          0000000140011b9a f   shell32:SHELL32.dll
 0001:00010ba0       SHAppBarMessage            0000000140011ba0 f   shell32:SHELL32.dll
 0001:00010ba6       InitCommonControlsEx       0000000140011ba6 f   comctl32:COMCTL32.dll
 0001:00010bac       PathIsDirectoryW           0000000140011bac f   shlwapi:SHLWAPI.dll
 0001:00010bc0       ??0CSize@@QEAA@XZ          0000000140011bc0 f   atlsd:atltypes.obj
 0001:00010bf0       ??0CSize@@QEAA@HH@Z        0000000140011bf0 f   atlsd:atltypes.obj
 0001:00010c20       ??0CSize@@QEAA@UtagSIZE@@@Z 0000000140011c20 f   atlsd:atltypes.obj
 0001:00010c40       ??0CSize@@QEAA@UtagPOINT@@@Z 0000000140011c40 f   atlsd:atltypes.obj
 0001:00010c60       ??0CSize@@QEAA@K@Z         0000000140011c60 f   atlsd:atltypes.obj
 0001:00010ca0       ??8CSize@@QEBAHUtagSIZE@@@Z 0000000140011ca0 f   atlsd:atltypes.obj
 0001:00010cf0       ??9CSize@@QEBAHUtagSIZE@@@Z 0000000140011cf0 f   atlsd:atltypes.obj
 0001:00010d40       ??YCSize@@QEAAXUtagSIZE@@@Z 0000000140011d40 f   atlsd:atltypes.obj
 0001:00010d80       ??ZCSize@@QEAAXUtagSIZE@@@Z 0000000140011d80 f   atlsd:atltypes.obj
 0001:00010dc0       ?SetSize@CSize@@QEAAXHH@Z  0000000140011dc0 f   atlsd:atltypes.obj
 0001:00010df0       ??HCSize@@QEBA?AV0@UtagSIZE@@@Z 0000000140011df0 f   atlsd:atltypes.obj
 0001:00010e40       ??GCSize@@QEBA?AV0@UtagSIZE@@@Z 0000000140011e40 f   atlsd:atltypes.obj
 0001:00010e90       ??GCSize@@QEBA?AV0@XZ      0000000140011e90 f   atlsd:atltypes.obj
 0001:00010ed0       ??HCSize@@QEBA?AVCPoint@@UtagPOINT@@@Z 0000000140011ed0 f   atlsd:atltypes.obj
 0001:00010f20       ??GCSize@@QEBA?AVCPoint@@UtagPOINT@@@Z 0000000140011f20 f   atlsd:atltypes.obj
 0001:00010f70       ??HCSize@@QEBA?AVCRect@@PEBUtagRECT@@@Z 0000000140011f70 f   atlsd:atltypes.obj
 0001:00010fe0       ??GCSize@@QEBA?AVCRect@@PEBUtagRECT@@@Z 0000000140011fe0 f   atlsd:atltypes.obj
 0001:00011050       ??0CPoint@@QEAA@XZ         0000000140012050 f   atlsd:atltypes.obj
 0001:00011080       ??0CPoint@@QEAA@HH@Z       0000000140012080 f   atlsd:atltypes.obj
 0001:000110b0       ??0CPoint@@QEAA@UtagPOINT@@@Z 00000001400120b0 f   atlsd:atltypes.obj
 0001:000110d0       ??0CPoint@@QEAA@UtagSIZE@@@Z 00000001400120d0 f   atlsd:atltypes.obj
 0001:000110f0       ??0CPoint@@QEAA@_J@Z       00000001400120f0 f   atlsd:atltypes.obj
 0001:00011130       ?Offset@CPoint@@QEAAXHH@Z  0000000140012130 f   atlsd:atltypes.obj
 0001:00011170       ?Offset@CPoint@@QEAAXUtagPOINT@@@Z 0000000140012170 f   atlsd:atltypes.obj
 0001:000111b0       ?Offset@CPoint@@QEAAXUtagSIZE@@@Z 00000001400121b0 f   atlsd:atltypes.obj
 0001:000111f0       ?SetPoint@CPoint@@QEAAXHH@Z 00000001400121f0 f   atlsd:atltypes.obj
 0001:00011220       ??8CPoint@@QEBAHUtagPOINT@@@Z 0000000140012220 f   atlsd:atltypes.obj
 0001:00011270       ??9CPoint@@QEBAHUtagPOINT@@@Z 0000000140012270 f   atlsd:atltypes.obj
 0001:000112c0       ??YCPoint@@QEAAXUtagSIZE@@@Z 00000001400122c0 f   atlsd:atltypes.obj
 0001:00011300       ??ZCPoint@@QEAAXUtagSIZE@@@Z 0000000140012300 f   atlsd:atltypes.obj
 0001:00011340       ??YCPoint@@QEAAXUtagPOINT@@@Z 0000000140012340 f   atlsd:atltypes.obj
 0001:00011380       ??ZCPoint@@QEAAXUtagPOINT@@@Z 0000000140012380 f   atlsd:atltypes.obj
 0001:000113c0       ??HCPoint@@QEBA?AV0@UtagSIZE@@@Z 00000001400123c0 f   atlsd:atltypes.obj
 0001:00011410       ??GCPoint@@QEBA?AV0@UtagSIZE@@@Z 0000000140012410 f   atlsd:atltypes.obj
 0001:00011460       ??GCPoint@@QEBA?AV0@XZ     0000000140012460 f   atlsd:atltypes.obj
 0001:000114a0       ??HCPoint@@QEBA?AV0@UtagPOINT@@@Z 00000001400124a0 f   atlsd:atltypes.obj
 0001:000114f0       ??GCPoint@@QEBA?AVCSize@@UtagPOINT@@@Z 00000001400124f0 f   atlsd:atltypes.obj
 0001:00011540       ??HCPoint@@QEBA?AVCRect@@PEBUtagRECT@@@Z 0000000140012540 f   atlsd:atltypes.obj
 0001:000115b0       ??GCPoint@@QEBA?AVCRect@@PEBUtagRECT@@@Z 00000001400125b0 f   atlsd:atltypes.obj
 0001:00011620       ??0CRect@@QEAA@XZ          0000000140012620 f   atlsd:atltypes.obj
 0001:00011660       ??0CRect@@QEAA@HHHH@Z      0000000140012660 f   atlsd:atltypes.obj
 0001:000116b0       ??0CRect@@QEAA@AEBUtagRECT@@@Z 00000001400126b0 f   atlsd:atltypes.obj
 0001:000116e0       ??0CRect@@QEAA@PEBUtagRECT@@@Z 00000001400126e0 f   atlsd:atltypes.obj
 0001:00011710       ??0CRect@@QEAA@UtagPOINT@@UtagSIZE@@@Z 0000000140012710 f   atlsd:atltypes.obj
 0001:00011770       ??0CRect@@QEAA@UtagPOINT@@0@Z 0000000140012770 f   atlsd:atltypes.obj
 0001:000117c0       ?Width@CRect@@QEBAHXZ      00000001400127c0 f   atlsd:atltypes.obj
 0001:000117e0       ?Height@CRect@@QEBAHXZ     00000001400127e0 f   atlsd:atltypes.obj
 0001:00011800       ?Size@CRect@@QEBA?AVCSize@@XZ 0000000140012800 f   atlsd:atltypes.obj
 0001:00011850       ?TopLeft@CRect@@QEAAAEAVCPoint@@XZ 0000000140012850 f   atlsd:atltypes.obj
 0001:00011860       ?BottomRight@CRect@@QEAAAEAVCPoint@@XZ 0000000140012860 f   atlsd:atltypes.obj
 0001:00011870       ?TopLeft@CRect@@QEBAAEBVCPoint@@XZ 0000000140012870 f   atlsd:atltypes.obj
 0001:00011880       ?BottomRight@CRect@@QEBAAEBVCPoint@@XZ 0000000140012880 f   atlsd:atltypes.obj
 0001:00011890       ?CenterPoint@CRect@@QEBA?AVCPoint@@XZ 0000000140012890 f   atlsd:atltypes.obj
 0001:000118f0       ?SwapLeftRight@CRect@@QEAAXXZ 00000001400128f0 f   atlsd:atltypes.obj
 0001:00011910       ?SwapLeftRight@CRect@@SAXPEAUtagRECT@@@Z 0000000140012910 f   atlsd:atltypes.obj
 0001:00011950       ??BCRect@@QEAAPEAUtagRECT@@XZ 0000000140012950 f   atlsd:atltypes.obj
 0001:00011960       ??BCRect@@QEBAPEBUtagRECT@@XZ 0000000140012960 f   atlsd:atltypes.obj
 0001:00011970       ?IsRectEmpty@CRect@@QEBAHXZ 0000000140012970 f   atlsd:atltypes.obj
 0001:00011990       ?IsRectNull@CRect@@QEBAHXZ 0000000140012990 f   atlsd:atltypes.obj
 0001:000119e0       ?PtInRect@CRect@@QEBAHUtagPOINT@@@Z 00000001400129e0 f   atlsd:atltypes.obj
 0001:00011a10       ?SetRect@CRect@@QEAAXHHHH@Z 0000000140012a10 f   atlsd:atltypes.obj
 0001:00011a50       ?SetRect@CRect@@QEAAXUtagPOINT@@0@Z 0000000140012a50 f   atlsd:atltypes.obj
 0001:00011a90       ?SetRectEmpty@CRect@@QEAAXXZ 0000000140012a90 f   atlsd:atltypes.obj
 0001:00011ab0       ?CopyRect@CRect@@QEAAXPEBUtagRECT@@@Z 0000000140012ab0 f   atlsd:atltypes.obj
 0001:00011ae0       ?EqualRect@CRect@@QEBAHPEBUtagRECT@@@Z 0000000140012ae0 f   atlsd:atltypes.obj
 0001:00011b10       ?InflateRect@CRect@@QEAAXHH@Z 0000000140012b10 f   atlsd:atltypes.obj
 0001:00011b40       ?InflateRect@CRect@@QEAAXUtagSIZE@@@Z 0000000140012b40 f   atlsd:atltypes.obj
 0001:00011b70       ?DeflateRect@CRect@@QEAAXHH@Z 0000000140012b70 f   atlsd:atltypes.obj
 0001:00011bb0       ?DeflateRect@CRect@@QEAAXUtagSIZE@@@Z 0000000140012bb0 f   atlsd:atltypes.obj
 0001:00011be0       ?OffsetRect@CRect@@QEAAXHH@Z 0000000140012be0 f   atlsd:atltypes.obj
 0001:00011c10       ?OffsetRect@CRect@@QEAAXUtagPOINT@@@Z 0000000140012c10 f   atlsd:atltypes.obj
 0001:00011c40       ?OffsetRect@CRect@@QEAAXUtagSIZE@@@Z 0000000140012c40 f   atlsd:atltypes.obj
 0001:00011c70       ?MoveToY@CRect@@QEAAXH@Z   0000000140012c70 f   atlsd:atltypes.obj
 0001:00011cb0       ?MoveToX@CRect@@QEAAXH@Z   0000000140012cb0 f   atlsd:atltypes.obj
 0001:00011cf0       ?MoveToXY@CRect@@QEAAXHH@Z 0000000140012cf0 f   atlsd:atltypes.obj
 0001:00011d30       ?MoveToXY@CRect@@QEAAXUtagPOINT@@@Z 0000000140012d30 f   atlsd:atltypes.obj
 0001:00011d60       ?IntersectRect@CRect@@QEAAHPEBUtagRECT@@0@Z 0000000140012d60 f   atlsd:atltypes.obj
 0001:00011d90       ?UnionRect@CRect@@QEAAHPEBUtagRECT@@0@Z 0000000140012d90 f   atlsd:atltypes.obj
 0001:00011dc0       ??4CRect@@QEAAXAEBUtagRECT@@@Z 0000000140012dc0 f   atlsd:atltypes.obj
 0001:00011df0       ??8CRect@@QEBAHAEBUtagRECT@@@Z 0000000140012df0 f   atlsd:atltypes.obj
 0001:00011e20       ??9CRect@@QEBAHAEBUtagRECT@@@Z 0000000140012e20 f   atlsd:atltypes.obj
 0001:00011e60       ??YCRect@@QEAAXUtagPOINT@@@Z 0000000140012e60 f   atlsd:atltypes.obj
 0001:00011e90       ??YCRect@@QEAAXUtagSIZE@@@Z 0000000140012e90 f   atlsd:atltypes.obj
 0001:00011ec0       ??YCRect@@QEAAXPEBUtagRECT@@@Z 0000000140012ec0 f   atlsd:atltypes.obj
 0001:00011ef0       ??ZCRect@@QEAAXUtagPOINT@@@Z 0000000140012ef0 f   atlsd:atltypes.obj
 0001:00011f20       ??ZCRect@@QEAAXUtagSIZE@@@Z 0000000140012f20 f   atlsd:atltypes.obj
 0001:00011f50       ??ZCRect@@QEAAXPEBUtagRECT@@@Z 0000000140012f50 f   atlsd:atltypes.obj
 0001:00011f80       ??_4CRect@@QEAAXAEBUtagRECT@@@Z 0000000140012f80 f   atlsd:atltypes.obj
 0001:00011fb0       ??_5CRect@@QEAAXAEBUtagRECT@@@Z 0000000140012fb0 f   atlsd:atltypes.obj
 0001:00011fe0       ??HCRect@@QEBA?AV0@UtagPOINT@@@Z 0000000140012fe0 f   atlsd:atltypes.obj
 0001:00012080       ??GCRect@@QEBA?AV0@UtagPOINT@@@Z 0000000140013080 f   atlsd:atltypes.obj
 0001:00012120       ??HCRect@@QEBA?AV0@UtagSIZE@@@Z 0000000140013120 f   atlsd:atltypes.obj
 0001:000121c0       ??GCRect@@QEBA?AV0@UtagSIZE@@@Z 00000001400131c0 f   atlsd:atltypes.obj
 0001:00012260       ??HCRect@@QEBA?AV0@PEBUtagRECT@@@Z 0000000140013260 f   atlsd:atltypes.obj
 0001:000122d0       ??GCRect@@QEBA?AV0@PEBUtagRECT@@@Z 00000001400132d0 f   atlsd:atltypes.obj
 0001:00012340       ??ICRect@@QEBA?AV0@AEBUtagRECT@@@Z 0000000140013340 f   atlsd:atltypes.obj
 0001:000123b0       ??UCRect@@QEBA?AV0@AEBUtagRECT@@@Z 00000001400133b0 f   atlsd:atltypes.obj
 0001:00012420       ?SubtractRect@CRect@@QEAAHPEBUtagRECT@@0@Z 0000000140013420 f   atlsd:atltypes.obj
 0001:00012450       ?NormalizeRect@CRect@@QEAAXXZ 0000000140013450 f   atlsd:atltypes.obj
 0001:000124d0       ?InflateRect@CRect@@QEAAXPEBUtagRECT@@@Z 00000001400134d0 f   atlsd:atltypes.obj
 0001:00012540       ?InflateRect@CRect@@QEAAXHHHH@Z 0000000140013540 f   atlsd:atltypes.obj
 0001:000125b0       ?DeflateRect@CRect@@QEAAXPEBUtagRECT@@@Z 00000001400135b0 f   atlsd:atltypes.obj
 0001:00012620       ?DeflateRect@CRect@@QEAAXHHHH@Z 0000000140013620 f   atlsd:atltypes.obj
 0001:00012690       ?MulDiv@CRect@@QEBA?AV1@HH@Z 0000000140013690 f   atlsd:atltypes.obj
 0001:00012740       ??0COleDateTimeSpan@ATL@@QEAA@XZ 0000000140013740 f   atlsd:ATLComTime.obj
 0001:00012770       ??0COleDateTimeSpan@ATL@@QEAA@N@Z 0000000140013770 f   atlsd:ATLComTime.obj
 0001:000127b0       ??0COleDateTimeSpan@ATL@@QEAA@JHHH@Z 00000001400137b0 f   atlsd:ATLComTime.obj
 0001:00012800       ?SetStatus@COleDateTimeSpan@ATL@@QEAAXW4DateTimeSpanStatus@12@@Z 0000000140013800 f   atlsd:ATLComTime.obj
 0001:00012820       ?GetStatus@COleDateTimeSpan@ATL@@QEBA?AW4DateTimeSpanStatus@12@XZ 0000000140013820 f   atlsd:ATLComTime.obj
 0001:00012830       ?GetTotalDays@COleDateTimeSpan@ATL@@QEBANXZ 0000000140013830 f   atlsd:ATLComTime.obj
 0001:000128d0       ?GetTotalHours@COleDateTimeSpan@ATL@@QEBANXZ 00000001400138d0 f   atlsd:ATLComTime.obj
 0001:00012980       ?GetTotalMinutes@COleDateTimeSpan@ATL@@QEBANXZ 0000000140013980 f   atlsd:ATLComTime.obj
 0001:00012a30       ?GetTotalSeconds@COleDateTimeSpan@ATL@@QEBANXZ 0000000140013a30 f   atlsd:ATLComTime.obj
 0001:00012ae0       ?GetDays@COleDateTimeSpan@ATL@@QEBAJXZ 0000000140013ae0 f   atlsd:ATLComTime.obj
 0001:00012b40       ?GetHours@COleDateTimeSpan@ATL@@QEBAJXZ 0000000140013b40 f   atlsd:ATLComTime.obj
 0001:00012b70       ?GetMinutes@COleDateTimeSpan@ATL@@QEBAJXZ 0000000140013b70 f   atlsd:ATLComTime.obj
 0001:00012ba0       ?GetSeconds@COleDateTimeSpan@ATL@@QEBAJXZ 0000000140013ba0 f   atlsd:ATLComTime.obj
 0001:00012bd0       ??4COleDateTimeSpan@ATL@@QEAAAEAV01@N@Z 0000000140013bd0 f   atlsd:ATLComTime.obj
 0001:00012c10       ??8COleDateTimeSpan@ATL@@QEBA_NAEBV01@@Z 0000000140013c10 f   atlsd:ATLComTime.obj
 0001:00012cd0       ??9COleDateTimeSpan@ATL@@QEBA_NAEBV01@@Z 0000000140013cd0 f   atlsd:ATLComTime.obj
 0001:00012d10       ??MCOleDateTimeSpan@ATL@@QEBA_NAEBV01@@Z 0000000140013d10 f   atlsd:ATLComTime.obj
 0001:00012e00       ??OCOleDateTimeSpan@ATL@@QEBA_NAEBV01@@Z 0000000140013e00 f   atlsd:ATLComTime.obj
 0001:00012ef0       ??NCOleDateTimeSpan@ATL@@QEBA_NAEBV01@@Z 0000000140013ef0 f   atlsd:ATLComTime.obj
 0001:00012f50       ??PCOleDateTimeSpan@ATL@@QEBA_NAEBV01@@Z 0000000140013f50 f   atlsd:ATLComTime.obj
 0001:00012fb0       ??HCOleDateTimeSpan@ATL@@QEBA?AV01@AEBV01@@Z 0000000140013fb0 f   atlsd:ATLComTime.obj
 0001:000130b0       ??GCOleDateTimeSpan@ATL@@QEBA?AV01@AEBV01@@Z 00000001400140b0 f   atlsd:ATLComTime.obj
 0001:000131b0       ??YCOleDateTimeSpan@ATL@@QEAAAEAV01@V01@@Z 00000001400141b0 f   atlsd:ATLComTime.obj
 0001:00013290       ??ZCOleDateTimeSpan@ATL@@QEAAAEAV01@V01@@Z 0000000140014290 f   atlsd:ATLComTime.obj
 0001:00013370       ??GCOleDateTimeSpan@ATL@@QEBA?AV01@XZ 0000000140014370 f   atlsd:ATLComTime.obj
 0001:000133b0       ??BCOleDateTimeSpan@ATL@@QEBANXZ 00000001400143b0 f   atlsd:ATLComTime.obj
 0001:000133c0       ?SetDateTimeSpan@COleDateTimeSpan@ATL@@QEAAXJHHH@Z 00000001400143c0 f   atlsd:ATLComTime.obj
 0001:00013450       ?CheckRange@COleDateTimeSpan@ATL@@QEAAXXZ 0000000140014450 f   atlsd:ATLComTime.obj
 0001:00013490       ?GetTickCount@COleDateTime@ATL@@SA?AV12@XZ 0000000140014490 f   atlsd:ATLComTime.obj
 0001:000134c0       ??0COleDateTime@ATL@@QEAA@XZ 00000001400144c0 f   atlsd:ATLComTime.obj
 0001:000134f0       ??0COleDateTime@ATL@@QEAA@AEBUtagVARIANT@@@Z 00000001400144f0 f   atlsd:ATLComTime.obj
 0001:00013530       ??0COleDateTime@ATL@@QEAA@N@Z 0000000140014530 f   atlsd:ATLComTime.obj
 0001:00013560       ??0COleDateTime@ATL@@QEAA@J@Z 0000000140014560 f   atlsd:ATLComTime.obj
 0001:000135a0       ??0COleDateTime@ATL@@QEAA@_J@Z 00000001400145a0 f   atlsd:ATLComTime.obj
 0001:000135e0       ??0COleDateTime@ATL@@QEAA@AEBU_SYSTEMTIME@@@Z 00000001400145e0 f   atlsd:ATLComTime.obj
 0001:00013620       ??0COleDateTime@ATL@@QEAA@AEBU_FILETIME@@@Z 0000000140014620 f   atlsd:ATLComTime.obj
 0001:00013660       ??0COleDateTime@ATL@@QEAA@HHHHHH@Z 0000000140014660 f   atlsd:ATLComTime.obj
 0001:000136c0       ??0COleDateTime@ATL@@QEAA@GG@Z 00000001400146c0 f   atlsd:ATLComTime.obj
 0001:00013720       ?SetStatus@COleDateTime@ATL@@QEAAXW4DateTimeStatus@12@@Z 0000000140014720 f   atlsd:ATLComTime.obj
 0001:00013740       ?GetStatus@COleDateTime@ATL@@QEBA?AW4DateTimeStatus@12@XZ 0000000140014740 f   atlsd:ATLComTime.obj
 0001:00013750       ?GetAsSystemTime@COleDateTime@ATL@@QEBA_NAEAU_SYSTEMTIME@@@Z 0000000140014750 f   atlsd:ATLComTime.obj
 0001:000137a0       ?GetAsUDATE@COleDateTime@ATL@@QEBA_NAEAUUDATE@@@Z 00000001400147a0 f   atlsd:ATLComTime.obj
 0001:000137f0       ?GetYear@COleDateTime@ATL@@QEBAHXZ 00000001400147f0 f   atlsd:ATLComTime.obj
 0001:00013850       ?GetMonth@COleDateTime@ATL@@QEBAHXZ 0000000140014850 f   atlsd:ATLComTime.obj
 0001:000138b0       ?GetDay@COleDateTime@ATL@@QEBAHXZ 00000001400148b0 f   atlsd:ATLComTime.obj
 0001:00013910       ?GetHour@COleDateTime@ATL@@QEBAHXZ 0000000140014910 f   atlsd:ATLComTime.obj
 0001:00013970       ?GetMinute@COleDateTime@ATL@@QEBAHXZ 0000000140014970 f   atlsd:ATLComTime.obj
 0001:000139d0       ?GetSecond@COleDateTime@ATL@@QEBAHXZ 00000001400149d0 f   atlsd:ATLComTime.obj
 0001:00013a30       ?GetDayOfWeek@COleDateTime@ATL@@QEBAHXZ 0000000140014a30 f   atlsd:ATLComTime.obj
 0001:00013a90       ?GetDayOfYear@COleDateTime@ATL@@QEBAHXZ 0000000140014a90 f   atlsd:ATLComTime.obj
 0001:00013af0       ??4COleDateTime@ATL@@QEAAAEAV01@AEBUtagVARIANT@@@Z 0000000140014af0 f   atlsd:ATLComTime.obj
 0001:00013b90       ??4COleDateTime@ATL@@QEAAAEAV01@N@Z 0000000140014b90 f   atlsd:ATLComTime.obj
 0001:00013bc0       ??4COleDateTime@ATL@@QEAAAEAV01@AEBJ@Z 0000000140014bc0 f   atlsd:ATLComTime.obj
 0001:00013bf0       ??4COleDateTime@ATL@@QEAAAEAV01@AEB_J@Z 0000000140014bf0 f   atlsd:ATLComTime.obj
 0001:00013c80       ??4COleDateTime@ATL@@QEAAAEAV01@AEBU_SYSTEMTIME@@@Z 0000000140014c80 f   atlsd:ATLComTime.obj
 0001:00013cd0       ??4COleDateTime@ATL@@QEAAAEAV01@AEBU_FILETIME@@@Z 0000000140014cd0 f   atlsd:ATLComTime.obj
 0001:00013d60       ?ConvertSystemTimeToVariantTime@COleDateTime@ATL@@IEAAHAEBU_SYSTEMTIME@@@Z 0000000140014d60 f   atlsd:ATLComTime.obj
 0001:00013d90       ??4COleDateTime@ATL@@QEAAAEAV01@AEBUUDATE@@@Z 0000000140014d90 f   atlsd:ATLComTime.obj
 0001:00013de0       ??8COleDateTime@ATL@@QEBA_NAEBV01@@Z 0000000140014de0 f   atlsd:ATLComTime.obj
 0001:00013ea0       ??9COleDateTime@ATL@@QEBA_NAEBV01@@Z 0000000140014ea0 f   atlsd:ATLComTime.obj
 0001:00013ee0       ??MCOleDateTime@ATL@@QEBA_NAEBV01@@Z 0000000140014ee0 f   atlsd:ATLComTime.obj
 0001:00013ff0       ??OCOleDateTime@ATL@@QEBA_NAEBV01@@Z 0000000140014ff0 f   atlsd:ATLComTime.obj
 0001:00014100       ??NCOleDateTime@ATL@@QEBA_NAEBV01@@Z 0000000140015100 f   atlsd:ATLComTime.obj
 0001:00014160       ??PCOleDateTime@ATL@@QEBA_NAEBV01@@Z 0000000140015160 f   atlsd:ATLComTime.obj
 0001:000141c0       ??HCOleDateTime@ATL@@QEBA?AV01@VCOleDateTimeSpan@1@@Z 00000001400151c0 f   atlsd:ATLComTime.obj
 0001:000142a0       ??GCOleDateTime@ATL@@QEBA?AV01@VCOleDateTimeSpan@1@@Z 00000001400152a0 f   atlsd:ATLComTime.obj
 0001:00014380       ??YCOleDateTime@ATL@@QEAAAEAV01@VCOleDateTimeSpan@1@@Z 0000000140015380 f   atlsd:ATLComTime.obj
 0001:00014450       ??ZCOleDateTime@ATL@@QEAAAEAV01@VCOleDateTimeSpan@1@@Z 0000000140015450 f   atlsd:ATLComTime.obj
 0001:00014520       ??GCOleDateTime@ATL@@QEBA?AVCOleDateTimeSpan@1@AEBV01@@Z 0000000140015520 f   atlsd:ATLComTime.obj
 0001:00014600       ??BCOleDateTime@ATL@@QEBANXZ 0000000140015600 f   atlsd:ATLComTime.obj
 0001:00014660       ?SetDateTime@COleDateTime@ATL@@QEAAHHHHHHH@Z 0000000140015660 f   atlsd:ATLComTime.obj
 0001:00014730       ?SetDate@COleDateTime@ATL@@QEAAHHHH@Z 0000000140015730 f   atlsd:ATLComTime.obj
 0001:00014780       ?SetTime@COleDateTime@ATL@@QEAAHHHH@Z 0000000140015780 f   atlsd:ATLComTime.obj
 0001:000147d0       ?DoubleFromDate@COleDateTime@ATL@@KANN@Z 00000001400157d0 f   atlsd:ATLComTime.obj
 0001:00014830       ?DateFromDouble@COleDateTime@ATL@@KANN@Z 0000000140015830 f   atlsd:ATLComTime.obj
 0001:00014890       ?CheckRange@COleDateTime@ATL@@IEAAXXZ 0000000140015890 f   atlsd:ATLComTime.obj
 0001:000148e0       ?GetAsDBTIMESTAMP@CTime@ATL@@QEBA_NAEAUtagDBTIMESTAMP@@@Z 00000001400158e0 f   atlsd:ATLComTime.obj
 0001:00014990       ?AtlConvertSystemTimeToVariantTime@ATL@@YAHAEBU_SYSTEMTIME@@PEAN@Z 0000000140015990 f i atlsd:ATLComTime.obj
 0001:00014b50       ?AtlThrowImpl@ATL@@YAXJ@Z  0000000140015b50 f i atlsd:ATLComTime.obj
 0001:00014c10       ??0CTraceFileAndLineInfo@ATL@@QEAA@PEBDH@Z 0000000140015c10 f i atlsd:ATLComTime.obj
 0001:00014c40       ??RCTraceFileAndLineInfo@ATL@@QEBAX_KIPEBDZZ 0000000140015c40 f i atlsd:ATLComTime.obj
 0001:00014cc0       ?TraceV@CTrace@ATL@@QEBAXPEBDH_KI0PEAD@Z 0000000140015cc0 f i atlsd:ATLComTime.obj
 0001:00014d20       ??BCTraceCategory@ATL@@QEBA_KXZ 0000000140015d20 f i atlsd:ATLComTime.obj
 0001:00014d30       ?_AtlRaiseException@ATL@@YAXKK@Z 0000000140015d30 f i atlsd:ATLComTime.obj
 0001:00014d60       ??0CTimeSpan@ATL@@QEAA@XZ  0000000140015d60 f   atlsd:atltime.obj
 0001:00014d80       ??0CTimeSpan@ATL@@QEAA@_J@Z 0000000140015d80 f   atlsd:atltime.obj
 0001:00014da0       ??0CTimeSpan@ATL@@QEAA@JHHH@Z 0000000140015da0 f   atlsd:atltime.obj
 0001:00014df0       ?GetDays@CTimeSpan@ATL@@QEBA_JXZ 0000000140015df0 f   atlsd:atltime.obj
 0001:00014e10       ?GetTotalHours@CTimeSpan@ATL@@QEBA_JXZ 0000000140015e10 f   atlsd:atltime.obj
 0001:00014e30       ?GetHours@CTimeSpan@ATL@@QEBAJXZ 0000000140015e30 f   atlsd:atltime.obj
 0001:00014e70       ?GetTotalMinutes@CTimeSpan@ATL@@QEBA_JXZ 0000000140015e70 f   atlsd:atltime.obj
 0001:00014e90       ?GetMinutes@CTimeSpan@ATL@@QEBAJXZ 0000000140015e90 f   atlsd:atltime.obj
 0001:00014ed0       ?GetTotalSeconds@CTimeSpan@ATL@@QEBA_JXZ 0000000140015ed0 f   atlsd:atltime.obj
 0001:00014ee0       ?GetSeconds@CTimeSpan@ATL@@QEBAJXZ 0000000140015ee0 f   atlsd:atltime.obj
 0001:00014f20       ?GetTimeSpan@CTimeSpan@ATL@@QEBA_JXZ 0000000140015f20 f   atlsd:atltime.obj
 0001:00014f30       ??HCTimeSpan@ATL@@QEBA?AV01@V01@@Z 0000000140015f30 f   atlsd:atltime.obj
 0001:00014f70       ??GCTimeSpan@ATL@@QEBA?AV01@V01@@Z 0000000140015f70 f   atlsd:atltime.obj
 0001:00014fb0       ??YCTimeSpan@ATL@@QEAAAEAV01@V01@@Z 0000000140015fb0 f   atlsd:atltime.obj
 0001:00014fe0       ??ZCTimeSpan@ATL@@QEAAAEAV01@V01@@Z 0000000140015fe0 f   atlsd:atltime.obj
 0001:00015010       ??8CTimeSpan@ATL@@QEBA_NV01@@Z 0000000140016010 f   atlsd:atltime.obj
 0001:00015050       ??9CTimeSpan@ATL@@QEBA_NV01@@Z 0000000140016050 f   atlsd:atltime.obj
 0001:00015090       ??MCTimeSpan@ATL@@QEBA_NV01@@Z 0000000140016090 f   atlsd:atltime.obj
 0001:000150d0       ??OCTimeSpan@ATL@@QEBA_NV01@@Z 00000001400160d0 f   atlsd:atltime.obj
 0001:00015110       ??NCTimeSpan@ATL@@QEBA_NV01@@Z 0000000140016110 f   atlsd:atltime.obj
 0001:00015150       ??PCTimeSpan@ATL@@QEBA_NV01@@Z 0000000140016150 f   atlsd:atltime.obj
 0001:00015190       ?GetTickCount@CTime@ATL@@SA?AV12@XZ 0000000140016190 f   atlsd:atltime.obj
 0001:000151c0       ?IsValidFILETIME@CTime@ATL@@SAHAEBU_FILETIME@@@Z 00000001400161c0 f   atlsd:atltime.obj
 0001:00015220       ??0CTime@ATL@@QEAA@XZ      0000000140016220 f   atlsd:atltime.obj
 0001:00015240       ??0CTime@ATL@@QEAA@_J@Z    0000000140016240 f   atlsd:atltime.obj
 0001:00015260       ??0CTime@ATL@@QEAA@HHHHHHH@Z 0000000140016260 f   atlsd:atltime.obj
 0001:000156d0       ??0CTime@ATL@@QEAA@GGH@Z   00000001400166d0 f   atlsd:atltime.obj
 0001:00015810       ??0CTime@ATL@@QEAA@AEBU_SYSTEMTIME@@H@Z 0000000140016810 f   atlsd:atltime.obj
 0001:000158e0       ??0CTime@ATL@@QEAA@AEBU_FILETIME@@H@Z 00000001400168e0 f   atlsd:atltime.obj
 0001:000159a0       ??4CTime@ATL@@QEAAAEAV01@_J@Z 00000001400169a0 f   atlsd:atltime.obj
 0001:000159c0       ??YCTime@ATL@@QEAAAEAV01@VCTimeSpan@1@@Z 00000001400169c0 f   atlsd:atltime.obj
 0001:00015a00       ??ZCTime@ATL@@QEAAAEAV01@VCTimeSpan@1@@Z 0000000140016a00 f   atlsd:atltime.obj
 0001:00015a40       ??GCTime@ATL@@QEBA?AVCTimeSpan@1@V01@@Z 0000000140016a40 f   atlsd:atltime.obj
 0001:00015a80       ??GCTime@ATL@@QEBA?AV01@VCTimeSpan@1@@Z 0000000140016a80 f   atlsd:atltime.obj
 0001:00015ad0       ??HCTime@ATL@@QEBA?AV01@VCTimeSpan@1@@Z 0000000140016ad0 f   atlsd:atltime.obj
 0001:00015b10       ??8CTime@ATL@@QEBA_NV01@@Z 0000000140016b10 f   atlsd:atltime.obj
 0001:00015b50       ??9CTime@ATL@@QEBA_NV01@@Z 0000000140016b50 f   atlsd:atltime.obj
 0001:00015b90       ??MCTime@ATL@@QEBA_NV01@@Z 0000000140016b90 f   atlsd:atltime.obj
 0001:00015bd0       ??OCTime@ATL@@QEBA_NV01@@Z 0000000140016bd0 f   atlsd:atltime.obj
 0001:00015c10       ??NCTime@ATL@@QEBA_NV01@@Z 0000000140016c10 f   atlsd:atltime.obj
 0001:00015c50       ??PCTime@ATL@@QEBA_NV01@@Z 0000000140016c50 f   atlsd:atltime.obj
 0001:00015c90       ?GetGmtTm@CTime@ATL@@QEBAPEAUtm@@PEAU3@@Z 0000000140016c90 f   atlsd:atltime.obj
 0001:00015da0       ?GetLocalTm@CTime@ATL@@QEBAPEAUtm@@PEAU3@@Z 0000000140016da0 f   atlsd:atltime.obj
 0001:00015eb0       ?GetAsSystemTime@CTime@ATL@@QEBA_NAEAU_SYSTEMTIME@@@Z 0000000140016eb0 f   atlsd:atltime.obj
 0001:00015f90       ?GetTime@CTime@ATL@@QEBA_JXZ 0000000140016f90 f   atlsd:atltime.obj
 0001:00015fa0       ?GetYear@CTime@ATL@@QEBAHXZ 0000000140016fa0 f   atlsd:atltime.obj
 0001:00016010       ?GetMonth@CTime@ATL@@QEBAHXZ 0000000140017010 f   atlsd:atltime.obj
 0001:00016080       ?GetDay@CTime@ATL@@QEBAHXZ 0000000140017080 f   atlsd:atltime.obj
 0001:000160f0       ?GetHour@CTime@ATL@@QEBAHXZ 00000001400170f0 f   atlsd:atltime.obj
 0001:00016160       ?GetMinute@CTime@ATL@@QEBAHXZ 0000000140017160 f   atlsd:atltime.obj
 0001:000161d0       ?GetSecond@CTime@ATL@@QEBAHXZ 00000001400171d0 f   atlsd:atltime.obj
 0001:00016240       ?GetDayOfWeek@CTime@ATL@@QEBAHXZ 0000000140017240 f   atlsd:atltime.obj
 0001:000162b0       ??0CFileTimeSpan@ATL@@QEAA@XZ 00000001400172b0 f   atlsd:atltime.obj
 0001:000162d0       ??0CFileTimeSpan@ATL@@QEAA@AEBV01@@Z 00000001400172d0 f   atlsd:atltime.obj
 0001:000162f0       ??0CFileTimeSpan@ATL@@QEAA@_J@Z 00000001400172f0 f   atlsd:atltime.obj
 0001:00016310       ??4CFileTimeSpan@ATL@@QEAAAEAV01@AEBV01@@Z 0000000140017310 f   atlsd:atltime.obj
 0001:00016330       ??YCFileTimeSpan@ATL@@QEAAAEAV01@V01@@Z 0000000140017330 f   atlsd:atltime.obj
 0001:00016360       ??ZCFileTimeSpan@ATL@@QEAAAEAV01@V01@@Z 0000000140017360 f   atlsd:atltime.obj
 0001:00016390       ??HCFileTimeSpan@ATL@@QEBA?AV01@V01@@Z 0000000140017390 f   atlsd:atltime.obj
 0001:000163d0       ??GCFileTimeSpan@ATL@@QEBA?AV01@V01@@Z 00000001400173d0 f   atlsd:atltime.obj
 0001:00016410       ??8CFileTimeSpan@ATL@@QEBA_NV01@@Z 0000000140017410 f   atlsd:atltime.obj
 0001:00016450       ??9CFileTimeSpan@ATL@@QEBA_NV01@@Z 0000000140017450 f   atlsd:atltime.obj
 0001:00016490       ??MCFileTimeSpan@ATL@@QEBA_NV01@@Z 0000000140017490 f   atlsd:atltime.obj
 0001:000164d0       ??OCFileTimeSpan@ATL@@QEBA_NV01@@Z 00000001400174d0 f   atlsd:atltime.obj
 0001:00016510       ??NCFileTimeSpan@ATL@@QEBA_NV01@@Z 0000000140017510 f   atlsd:atltime.obj
 0001:00016550       ??PCFileTimeSpan@ATL@@QEBA_NV01@@Z 0000000140017550 f   atlsd:atltime.obj
 0001:00016590       ?GetTimeSpan@CFileTimeSpan@ATL@@QEBA_JXZ 0000000140017590 f   atlsd:atltime.obj
 0001:000165a0       ?SetTimeSpan@CFileTimeSpan@ATL@@QEAAX_J@Z 00000001400175a0 f   atlsd:atltime.obj
 0001:000165c0       ??0CFileTime@ATL@@QEAA@XZ  00000001400175c0 f   atlsd:atltime.obj
 0001:000165f0       ??0CFileTime@ATL@@QEAA@AEBU_FILETIME@@@Z 00000001400175f0 f   atlsd:atltime.obj
 0001:00016620       ??0CFileTime@ATL@@QEAA@_K@Z 0000000140017620 f   atlsd:atltime.obj
 0001:00016650       ??4CFileTime@ATL@@QEAAAEAV01@AEBU_FILETIME@@@Z 0000000140017650 f   atlsd:atltime.obj
 0001:00016680       ?GetTickCount@CFileTime@ATL@@SA?AV12@XZ 0000000140017680 f   atlsd:atltime.obj
 0001:000166c0       ??YCFileTime@ATL@@QEAAAEAV01@VCFileTimeSpan@1@@Z 00000001400176c0 f   atlsd:atltime.obj
 0001:00016710       ??ZCFileTime@ATL@@QEAAAEAV01@VCFileTimeSpan@1@@Z 0000000140017710 f   atlsd:atltime.obj
 0001:00016760       ??HCFileTime@ATL@@QEBA?AV01@VCFileTimeSpan@1@@Z 0000000140017760 f   atlsd:atltime.obj
 0001:000167b0       ??GCFileTime@ATL@@QEBA?AV01@VCFileTimeSpan@1@@Z 00000001400177b0 f   atlsd:atltime.obj
 0001:00016800       ??GCFileTime@ATL@@QEBA?AVCFileTimeSpan@1@V01@@Z 0000000140017800 f   atlsd:atltime.obj
 0001:00016850       ??8CFileTime@ATL@@QEBA_NV01@@Z 0000000140017850 f   atlsd:atltime.obj
 0001:000168a0       ??9CFileTime@ATL@@QEBA_NV01@@Z 00000001400178a0 f   atlsd:atltime.obj
 0001:000168f0       ??MCFileTime@ATL@@QEBA_NV01@@Z 00000001400178f0 f   atlsd:atltime.obj
 0001:00016940       ??OCFileTime@ATL@@QEBA_NV01@@Z 0000000140017940 f   atlsd:atltime.obj
 0001:00016990       ??NCFileTime@ATL@@QEBA_NV01@@Z 0000000140017990 f   atlsd:atltime.obj
 0001:000169e0       ??PCFileTime@ATL@@QEBA_NV01@@Z 00000001400179e0 f   atlsd:atltime.obj
 0001:00016a30       ?GetTime@CFileTime@ATL@@QEBA_KXZ 0000000140017a30 f   atlsd:atltime.obj
 0001:00016a50       ?SetTime@CFileTime@ATL@@QEAAX_K@Z 0000000140017a50 f   atlsd:atltime.obj
 0001:00016a80       ?UTCToLocal@CFileTime@ATL@@QEBA?AV12@XZ 0000000140017a80 f   atlsd:atltime.obj
 0001:00016ac0       ?LocalToUTC@CFileTime@ATL@@QEBA?AV12@XZ 0000000140017ac0 f   atlsd:atltime.obj
 0001:00016b00       ??0CTraceCategory@ATL@@QEAA@PEBDI@Z 0000000140017b00 f i atlsd:atltrace.obj
 0001:00016b60       ?ChangeCategory@CTrace@ATL@@QEAA_N_KIW4ATLTRACESTATUS@2@@Z 0000000140017b60 f i atlsd:atltrace.obj
 0001:00016bb0       ?RegisterCategory@CTrace@ATL@@QEAA_KPEBD@Z 0000000140017bb0 f i atlsd:atltrace.obj
 0001:00016be0       ??0CAtlAllocator@@QEAA@XZ  0000000140017be0 f i atlsd:Externs.obj
 0001:00016c40       ??0CTraceSnapshot@@QEAA@XZ 0000000140017c40 f i atlsd:Externs.obj
 0001:00016c70       ??0?$CSimpleArray@UCModuleInfo@CTraceSnapshot@@V?$CSimpleArrayEqualHelper@UCModuleInfo@CTraceSnapshot@@@ATL@@@ATL@@QEAA@XZ 0000000140017c70 f i atlsd:Externs.obj
 0001:00016ca0       ??0?$CSimpleArray@_KV?$CSimpleArrayEqualHelper@_K@ATL@@@ATL@@QEAA@XZ 0000000140017ca0 f i atlsd:Externs.obj
 0001:00016de0       ??0CAtlException@ATL@@QEAA@J@Z 0000000140017de0 f i atlsd:Externs.obj
 0001:00016e00       ?AtlCrtErrorCheck@ATL@@YAHH@Z 0000000140017e00 f i atlsd:Externs.obj
 0001:00016e70       ??0CTrace@ATL@@AEAA@P6AHHPEBDH00ZZ@Z 0000000140017e70 f i atlsd:Externs.obj
 0001:00016ec0       ??1CAtlAllocator@@QEAA@XZ  0000000140017ec0 f i atlsd:Externs.obj
 0001:00016ef0       ??1CTraceSnapshot@@QEAA@XZ 0000000140017ef0 f i atlsd:Externs.obj
 0001:00016f20       ??1?$CSimpleArray@UCModuleInfo@CTraceSnapshot@@V?$CSimpleArrayEqualHelper@UCModuleInfo@CTraceSnapshot@@@ATL@@@ATL@@QEAA@XZ 0000000140017f20 f i atlsd:Externs.obj
 0001:00016f40       ??1?$CSimpleArray@_KV?$CSimpleArrayEqualHelper@_K@ATL@@@ATL@@QEAA@XZ 0000000140017f40 f i atlsd:Externs.obj
 0001:00016f60       ?RemoveAll@?$CSimpleArray@UCModuleInfo@CTraceSnapshot@@V?$CSimpleArrayEqualHelper@UCModuleInfo@CTraceSnapshot@@@ATL@@@ATL@@QEAAXXZ 0000000140017f60 f i atlsd:Externs.obj
 0001:00016fd0       ?RemoveAll@?$CSimpleArray@_KV?$CSimpleArrayEqualHelper@_K@ATL@@@ATL@@QEAAXXZ 0000000140017fd0 f i atlsd:Externs.obj
 0001:00017040       ??1CTrace@ATL@@AEAA@XZ     0000000140018040 f i atlsd:Externs.obj
 0001:00017060       ?NotifyTool@ATL@@YAXXZ     0000000140018060 f   atlsd:AtlDebugAPI.obj
 0001:000170a0       AtlTraceRegister           00000001400180a0 f   atlsd:AtlDebugAPI.obj
 0001:00017140       AtlTraceUnregister         0000000140018140 f   atlsd:AtlDebugAPI.obj
 0001:00017180       AtlTraceRegisterCategoryA  0000000140018180 f   atlsd:AtlDebugAPI.obj
 0001:00017210       AtlTraceRegisterCategoryU  0000000140018210 f   atlsd:AtlDebugAPI.obj
 0001:00017270       AtlTraceModifyProcess      0000000140018270 f   atlsd:AtlDebugAPI.obj
 0001:00017390       ?GetProcess@CAtlAllocator@@QEBAPEAVCAtlTraceProcess@@XZ 0000000140018390 f i atlsd:AtlDebugAPI.obj
 0001:000173a0       AtlTraceModifyModule       00000001400183a0 f   atlsd:AtlDebugAPI.obj
 0001:000174e0       AtlTraceModifyCategory     00000001400184e0 f   atlsd:AtlDebugAPI.obj
 0001:000175e0       AtlTraceGetProcess         00000001400185e0 f   atlsd:AtlDebugAPI.obj
 0001:00017720       AtlTraceGetModule          0000000140018720 f   atlsd:AtlDebugAPI.obj
 0001:000178a0       AtlTraceGetCategory        00000001400188a0 f   atlsd:AtlDebugAPI.obj
 0001:000179e0       AtlTraceGetUpdateEventNameA 00000001400189e0 f   atlsd:AtlDebugAPI.obj
 0001:00017a20       AtlTraceGetUpdateEventNameA_s 0000000140018a20 f   atlsd:AtlDebugAPI.obj
 0001:00017a60       AtlTraceGetUpdateEventNameU 0000000140018a60 f   atlsd:AtlDebugAPI.obj
 0001:00017ae0       AtlTraceGetUpdateEventNameU_s 0000000140018ae0 f   atlsd:AtlDebugAPI.obj
 0001:00017b70       AtlTraceVA                 0000000140018b70 f   atlsd:AtlDebugAPI.obj
 0001:00017f50       ?Name@CAtlTraceCategory@@QEBAPEB_WXZ 0000000140018f50 f i atlsd:AtlDebugAPI.obj
 0001:00017f60       AtlTraceVU                 0000000140018f60 f   atlsd:AtlDebugAPI.obj
 0001:00018370       AtlTraceOpenProcess        0000000140019370 f   atlsd:AtlDebugAPI.obj
 0001:000184f0       ??_GCAtlAllocator@@QEAAPEAXI@Z 00000001400194f0 f i atlsd:AtlDebugAPI.obj
 0001:00018530       AtlTraceCloseProcess       0000000140019530 f   atlsd:AtlDebugAPI.obj
 0001:00018610       AtlTraceSnapshotProcess    0000000140019610 f   atlsd:AtlDebugAPI.obj
 0001:000186b0       AtlTraceGetProcessInfo     00000001400196b0 f   atlsd:AtlDebugAPI.obj
 0001:000188e0       ?Path@CAtlTraceModuleInfo@@QEBAPEB_WXZ 00000001400198e0 f i atlsd:AtlDebugAPI.obj
 0001:000188f0       ?Name@CAtlTraceModuleInfo@@QEBAPEB_WXZ 00000001400198f0 f i atlsd:AtlDebugAPI.obj
 0001:00018910       ?Id@CAtlTraceProcess@@QEBAKXZ 0000000140019910 f i atlsd:AtlDebugAPI.obj
 0001:00018930       AtlTraceGetModuleInfo      0000000140019930 f   atlsd:AtlDebugAPI.obj
 0001:00018b80       AtlTraceGetCategoryInfo    0000000140019b80 f   atlsd:AtlDebugAPI.obj
 0001:00019080       ?CrtDbgReport@CAtlTraceModule@@QEBAP6AHHPEBDH00ZZXZ 000000014001a080 f i atlsd:AtlDebugAPI.obj
 0001:000190a0       ?_IsTracingEnabled@ATL@@YA_N_K0I@Z 000000014001a0a0 f   atlsd:AtlDebugAPI.obj
 0001:000190f0       ?GetSize@?$CSimpleArray@UCModuleInfo@CTraceSnapshot@@V?$CSimpleArrayEqualHelper@UCModuleInfo@CTraceSnapshot@@@ATL@@@ATL@@QEBAHXZ 000000014001a0f0 f i atlsd:AtlDebugAPI.obj
 0001:00019100       ??A?$CSimpleArray@UCModuleInfo@CTraceSnapshot@@V?$CSimpleArrayEqualHelper@UCModuleInfo@CTraceSnapshot@@@ATL@@@ATL@@QEAAAEAUCModuleInfo@CTraceSnapshot@@H@Z 000000014001a100 f i atlsd:AtlDebugAPI.obj
 0001:00019190       ?strcpy_s@Checked@ATL@@YAXPEAD_KPEBD@Z 000000014001a190 f i atlsd:AtlDebugAPI.obj
 0001:000191d0       ?wcscpy_s@Checked@ATL@@YAXPEA_W_KPEB_W@Z 000000014001a1d0 f i atlsd:AtlDebugAPI.obj
 0001:00019210       ??0?$CA2WEX@$0IA@@ATL@@QEAA@PEBD@Z 000000014001a210 f i atlsd:AtlDebugAPI.obj
 0001:00019250       ?_AtlGetConversionACP@ATL@@YAIXZ 000000014001a250 f i atlsd:AtlDebugAPI.obj
 0001:00019260       ??1?$CA2WEX@$0IA@@ATL@@QEAA@XZ 000000014001a260 f i atlsd:AtlDebugAPI.obj
 0001:00019290       ??B?$CA2WEX@$0IA@@ATL@@QEBAPEA_WXZ 000000014001a290 f i atlsd:AtlDebugAPI.obj
 0001:000192a0       ?Init@?$CA2WEX@$0IA@@ATL@@AEAAXPEBDI@Z 000000014001a2a0 f i atlsd:AtlDebugAPI.obj
 0001:00019410       ?AtlThrowLastWin32@ATL@@YAXXZ 000000014001a410 f i atlsd:AtlDebugAPI.obj
 0001:00019440       HRESULT_FROM_WIN32         000000014001a440 f i atlsd:AtlDebugAPI.obj
 0001:00019480       ??$AtlConvFreeMemory@_W@ATL@@YAXPEA_W0H@Z 000000014001a480 f i atlsd:AtlDebugAPI.obj
 0001:000194d0       ??$AtlConvAllocMemory@_W@ATL@@YAXPEAPEA_WHPEA_WH@Z 000000014001a4d0 f i atlsd:AtlDebugAPI.obj
 0001:00019730       ?Init@CAtlAllocator@@QEAA_NPEBDK@Z 000000014001a730 f   atlsd:Allocate.obj
 0001:00019b90       ?IncRef@CAtlTraceProcess@@QEAAIXZ 000000014001ab90 f i atlsd:Allocate.obj
 0001:00019bc0       ?Base@CAtlTraceProcess@@QEBAPEAXXZ 000000014001abc0 f i atlsd:Allocate.obj
 0001:00019be0       ?Open@CAtlAllocator@@QEAA_NPEBD@Z 000000014001abe0 f   atlsd:Allocate.obj
 0001:00019d20       ?Close@CAtlAllocator@@QEAAX_N@Z 000000014001ad20 f   atlsd:Allocate.obj
 0001:00019da0       ?DecRef@CAtlTraceProcess@@QEAAIXZ 000000014001ada0 f i atlsd:Allocate.obj
 0001:00019dd0       ?GetModule@CAtlAllocator@@QEBAPEAVCAtlTraceModule@@H@Z 000000014001add0 f   atlsd:Allocate.obj
 0001:00019e90       ?ModuleCount@CAtlTraceProcess@@QEBAHXZ 000000014001ae90 f i atlsd:Allocate.obj
 0001:00019eb0       ?GetCategory@CAtlAllocator@@QEBAPEAVCAtlTraceCategory@@H@Z 000000014001aeb0 f   atlsd:Allocate.obj
 0001:00019f90       ?MaxSize@CAtlTraceProcess@@QEBA_KXZ 000000014001af90 f i atlsd:Allocate.obj
 0001:00019fb0       ?CategoryCount@CAtlTraceProcess@@QEBAHXZ 000000014001afb0 f i atlsd:Allocate.obj
 0001:00019fd0       ?GetCategoryCount@CAtlAllocator@@QEBAHH@Z 000000014001afd0 f   atlsd:Allocate.obj
 0001:0001a070       ?GetCategoryCount@CAtlAllocator@@QEBAHAEBVCAtlTraceModule@@@Z 000000014001b070 f   atlsd:Allocate.obj
 0001:0001a0f0       ?GetModuleCount@CAtlAllocator@@QEBAHXZ 000000014001b0f0 f   atlsd:Allocate.obj
 0001:0001a160       ?FindModule@CAtlAllocator@@QEBA_NPEB_WPEAI@Z 000000014001b160 f   atlsd:Allocate.obj
 0001:0001a200       ?AddModule@CAtlAllocator@@QEAAHPEAUHINSTANCE__@@@Z 000000014001b200 f   atlsd:Allocate.obj
 0001:0001a470       ?TryAllocate@CAtlTraceSettings@@QEAA_NXZ 000000014001b470 f i atlsd:Allocate.obj
 0001:0001a4c0       ?MarkValid@CAtlTraceSettings@@QEAAXJ@Z 000000014001b4c0 f i atlsd:Allocate.obj
 0001:0001a520       ?IncModuleCount@CAtlTraceProcess@@QEAAXI@Z 000000014001b520 f i atlsd:Allocate.obj
 0001:0001a550       ?AddCategory@CAtlAllocator@@QEAAHHPEB_W@Z 000000014001b550 f   atlsd:Allocate.obj
 0001:0001a840       ?TryAddRef@CAtlTraceSettings@@QEAA_NXZ 000000014001b840 f i atlsd:Allocate.obj
 0001:0001a890       ?Release@CAtlTraceSettings@@QEAAXXZ 000000014001b890 f i atlsd:Allocate.obj
 0001:0001a8d0       ?IncCategoryCount@CAtlTraceProcess@@QEAAXI@Z 000000014001b8d0 f i atlsd:Allocate.obj
 0001:0001a900       ?RemoveModule@CAtlAllocator@@QEAA_NH@Z 000000014001b900 f   atlsd:Allocate.obj
 0001:0001a9e0       ?CleanUp@CAtlAllocator@@QEAAXXZ 000000014001b9e0 f   atlsd:Allocate.obj
 0001:0001aa00       ?TakeSnapshot@CAtlAllocator@@QEAAXXZ 000000014001ba00 f   atlsd:Allocate.obj
 0001:0001aca0       ?ReleaseSnapshot@CAtlAllocator@@QEAAXXZ 000000014001bca0 f   atlsd:Allocate.obj
 0001:0001adb0       ?Add@?$CSimpleArray@UCModuleInfo@CTraceSnapshot@@V?$CSimpleArrayEqualHelper@UCModuleInfo@CTraceSnapshot@@@ATL@@@ATL@@QEAAHAEBUCModuleInfo@CTraceSnapshot@@@Z 000000014001bdb0 f i atlsd:Allocate.obj
 0001:0001af30       ?GetSize@?$CSimpleArray@_KV?$CSimpleArrayEqualHelper@_K@ATL@@@ATL@@QEBAHXZ 000000014001bf30 f i atlsd:Allocate.obj
 0001:0001af40       ?Add@?$CSimpleArray@_KV?$CSimpleArrayEqualHelper@_K@ATL@@@ATL@@QEAAHAEB_K@Z 000000014001bf40 f i atlsd:Allocate.obj
 0001:0001b0c0       ?RemoveAt@?$CSimpleArray@_KV?$CSimpleArrayEqualHelper@_K@ATL@@@ATL@@QEAAHH@Z 000000014001c0c0 f i atlsd:Allocate.obj
 0001:0001b1d0       ??A?$CSimpleArray@_KV?$CSimpleArrayEqualHelper@_K@ATL@@@ATL@@QEAAAEA_KH@Z 000000014001c1d0 f i atlsd:Allocate.obj
 0001:0001b260       ?InternalSetAtIndex@?$CSimpleArray@UCModuleInfo@CTraceSnapshot@@V?$CSimpleArrayEqualHelper@UCModuleInfo@CTraceSnapshot@@@ATL@@@ATL@@QEAAXHAEBUCModuleInfo@CTraceSnapshot@@@Z 000000014001c260 f i atlsd:Allocate.obj
 0001:0001b2d0       ?InternalSetAtIndex@?$CSimpleArray@_KV?$CSimpleArrayEqualHelper@_K@ATL@@@ATL@@QEAAXHAEB_K@Z 000000014001c2d0 f i atlsd:Allocate.obj
 0001:0001b340       ??0Wrapper@?$CSimpleArray@UCModuleInfo@CTraceSnapshot@@V?$CSimpleArrayEqualHelper@UCModuleInfo@CTraceSnapshot@@@ATL@@@ATL@@QEAA@AEBUCModuleInfo@CTraceSnapshot@@@Z 000000014001c340 f i atlsd:Allocate.obj
 0001:0001b390       ??0Wrapper@?$CSimpleArray@_KV?$CSimpleArrayEqualHelper@_K@ATL@@@ATL@@QEAA@AEB_K@Z 000000014001c390 f i atlsd:Allocate.obj
 0001:0001b3b0       ??$?2UCModuleInfo@CTraceSnapshot@@@Wrapper@?$CSimpleArray@UCModuleInfo@CTraceSnapshot@@V?$CSimpleArrayEqualHelper@UCModuleInfo@CTraceSnapshot@@@ATL@@@ATL@@SAPEAX_KPEAUCModuleInfo@CTraceSnapshot@@@Z 000000014001c3b0 f i atlsd:Allocate.obj
 0001:0001b3c0       ??$?2_K@Wrapper@?$CSimpleArray@_KV?$CSimpleArrayEqualHelper@_K@ATL@@@ATL@@SAPEAX_KPEA_K@Z 000000014001c3c0 f i atlsd:Allocate.obj
 0001:0001b3d0       ?memmove_s@Checked@ATL@@YAXPEAX_KPEBX1@Z 000000014001c3d0 f i atlsd:Allocate.obj
 0001:0001b410       ??0CAtlTraceModuleInfo@@QEAA@XZ 000000014001c410 f   atlsd:AtlTraceModuleManager.obj
 0001:0001b460       ?Reset@CAtlTraceModuleInfo@@QEAAXPEAUHINSTANCE__@@@Z 000000014001c460 f   atlsd:AtlTraceModuleManager.obj
 0001:0001b5d0       ??0CAtlTraceCategory@@QEAA@XZ 000000014001c5d0 f   atlsd:AtlTraceModuleManager.obj
 0001:0001b620       ??0CAtlTraceSettings@@QEAA@XZ 000000014001c620 f i atlsd:AtlTraceModuleManager.obj
 0001:0001b660       ?Reset@CAtlTraceCategory@@QEAAXPEB_WJ@Z 000000014001c660 f   atlsd:AtlTraceModuleManager.obj
 0001:0001b6c0       ??0CAtlTraceModule@@QEAA@XZ 000000014001c6c0 f   atlsd:AtlTraceModuleManager.obj
 0001:0001b700       ?CrtDbgReport@CAtlTraceModule@@QEAAXP6AHHPEBDH00ZZ@Z 000000014001c700 f   atlsd:AtlTraceModuleManager.obj
 0001:0001b750       ??0CAtlTraceProcess@@QEAA@_K@Z 000000014001c750 f   atlsd:AtlTraceModuleManager.obj
 0001:0001b850       ?GetNextCookie@CAtlTraceProcess@@QEAAJXZ 000000014001c850 f   atlsd:AtlTraceModuleManager.obj
 0001:0001b86e       SysFreeString              000000014001c86e f   oleaut32:OLEAUT32.dll
 0001:0001b874       DosDateTimeToVariantTime   000000014001c874 f   oleaut32:OLEAUT32.dll
 0001:0001b87a       VariantTimeToSystemTime    000000014001c87a f   oleaut32:OLEAUT32.dll
 0001:0001b880       VarUdateFromDate           000000014001c880 f   oleaut32:OLEAUT32.dll
 0001:0001b886       VariantChangeType          000000014001c886 f   oleaut32:OLEAUT32.dll
 0001:0001b88c       VarDateFromUdate           000000014001c88c f   oleaut32:OLEAUT32.dll
 0001:0001b892       SystemTimeToVariantTime    000000014001c892 f   oleaut32:OLEAUT32.dll
 0001:0001b898       WSAStartup                 000000014001c898 f   ws2_32:WS2_32.dll
 0001:0001b89e       WSACleanup                 000000014001c89e f   ws2_32:WS2_32.dll
 0001:0001b8a4       ??2@YAPEAX_K@Z             000000014001c8a4 f   mfc100ud:mfc100ud.dll
 0001:0001b8b0       wWinMain                   000000014001c8b0 f   mfcs100ud:appmodul.obj
 0001:0001b8f0       ?AfxInitialize@@YAHHK@Z    000000014001c8f0 f   mfcs100ud:appmodul.obj
 0001:0001b94c       _time64                    000000014001c94c f   msvcrtd:MSVCR100D.dll
 0001:0001b952       ceil                       000000014001c952 f   msvcrtd:MSVCR100D.dll
 0001:0001b958       floor                      000000014001c958 f   msvcrtd:MSVCR100D.dll
 0001:0001b95e       _mktime64                  000000014001c95e f   msvcrtd:MSVCR100D.dll
 0001:0001b964       _gmtime64_s                000000014001c964 f   msvcrtd:MSVCR100D.dll
 0001:0001b96a       _localtime64_s             000000014001c96a f   msvcrtd:MSVCR100D.dll
 0001:0001b970       _snprintf_s                000000014001c970 f   msvcrtd:MSVCR100D.dll
 0001:0001b976       _errno                     000000014001c976 f   msvcrtd:MSVCR100D.dll
 0001:0001b97c       _CxxThrowException         000000014001c97c f   msvcrtd:MSVCR100D.dll
 0001:0001b982       _CrtDbgReport              000000014001c982 f   msvcrtd:MSVCR100D.dll
 0001:0001b988       free                       000000014001c988 f   msvcrtd:MSVCR100D.dll
 0001:0001b98e       strcpy                     000000014001c98e f   msvcrtd:MSVCR100D.dll
 0001:0001b994       _vsnprintf_s               000000014001c994 f   msvcrtd:MSVCR100D.dll
 0001:0001b99a       _vsnwprintf_s              000000014001c99a f   msvcrtd:MSVCR100D.dll
 0001:0001b9a0       _snwprintf_s               000000014001c9a0 f   msvcrtd:MSVCR100D.dll
 0001:0001b9a6       strcpy_s                   000000014001c9a6 f   msvcrtd:MSVCR100D.dll
 0001:0001b9ac       calloc                     000000014001c9ac f   msvcrtd:MSVCR100D.dll
 0001:0001b9b2       _recalloc                  000000014001c9b2 f   msvcrtd:MSVCR100D.dll
 0001:0001b9b8       memcmp                     000000014001c9b8 f   msvcrtd:MSVCR100D.dll
 0001:0001b9be       _wcsicmp                   000000014001c9be f   msvcrtd:MSVCR100D.dll
 0001:0001b9c4       memmove_s                  000000014001c9c4 f   msvcrtd:MSVCR100D.dll
 0001:0001b9ca       MulDiv                     000000014001c9ca f   kernel32:KERNEL32.dll
 0001:0001b9d0       FileTimeToSystemTime       000000014001c9d0 f   kernel32:KERNEL32.dll
 0001:0001b9d6       FileTimeToLocalFileTime    000000014001c9d6 f   kernel32:KERNEL32.dll
 0001:0001b9dc       LocalFileTimeToFileTime    000000014001c9dc f   kernel32:KERNEL32.dll
 0001:0001b9e2       SetEvent                   000000014001c9e2 f   kernel32:KERNEL32.dll
 0001:0001b9e8       OpenEventA                 000000014001c9e8 f   kernel32:KERNEL32.dll
 0001:0001b9ee       OutputDebugStringA         000000014001c9ee f   kernel32:KERNEL32.dll
 0001:0001b9f4       VirtualAlloc               000000014001c9f4 f   kernel32:KERNEL32.dll
 0001:0001b9fa       GetSystemInfo              000000014001c9fa f   kernel32:KERNEL32.dll
 0001:0001ba00       CreateFileMappingA         000000014001ca00 f   kernel32:KERNEL32.dll
 0001:0001ba06       GetCurrentThread           000000014001ca06 f   kernel32:KERNEL32.dll
 0001:0001ba0c       OpenFileMappingA           000000014001ca0c f   kernel32:KERNEL32.dll
 0001:0001ba12       CopyRect                   000000014001ca12 f   user32:USER32.dll
 0001:0001ba18       IsRectEmpty                000000014001ca18 f   user32:USER32.dll
 0001:0001ba1e       PtInRect                   000000014001ca1e f   user32:USER32.dll
 0001:0001ba24       SetRect                    000000014001ca24 f   user32:USER32.dll
 0001:0001ba2a       SetRectEmpty               000000014001ca2a f   user32:USER32.dll
 0001:0001ba30       EqualRect                  000000014001ca30 f   user32:USER32.dll
 0001:0001ba36       InflateRect                000000014001ca36 f   user32:USER32.dll
 0001:0001ba3c       OffsetRect                 000000014001ca3c f   user32:USER32.dll
 0001:0001ba42       IntersectRect              000000014001ca42 f   user32:USER32.dll
 0001:0001ba48       UnionRect                  000000014001ca48 f   user32:USER32.dll
 0001:0001ba4e       SubtractRect               000000014001ca4e f   user32:USER32.dll
 0001:0001ba54       SetThreadToken             000000014001ca54 f   advapi32:ADVAPI32.dll
 0001:0001ba5a       RevertToSelf               000000014001ca5a f   advapi32:ADVAPI32.dll
 0001:0001ba60       OpenThreadToken            000000014001ca60 f   advapi32:ADVAPI32.dll
 0001:0001ba66       ?AfxWinMain@@YAHPEAUHINSTANCE__@@0PEA_WH@Z 000000014001ca66 f   mfc100ud:mfc100ud.dll
 0001:0001ba6c       ?AfxGetModuleState@@YAPEAVAFX_MODULE_STATE@@XZ 000000014001ca6c f   mfc100ud:mfc100ud.dll
 0002:00000000       __xc_a                     0000000140027000     msvcrtd:cinitexe.obj
 0002:000006b0       __xc_z                     00000001400276b0     msvcrtd:cinitexe.obj
 0002:000007c0       __xi_a                     00000001400277c0     msvcrtd:cinitexe.obj
 0002:00000af0       __xi_z                     0000000140027af0     msvcrtd:cinitexe.obj
 0002:00001730       ?classCConfigPage0@CConfigPage0@@2UCRuntimeClass@@B 0000000140028730     ConfigPage0.obj
 0002:00001778       ??_7CConfigPage0@@6B@      0000000140028778     ConfigPage0.obj
 0002:00002608       ?classCConfigPage1@CConfigPage1@@2UCRuntimeClass@@B 0000000140029608     ConfigPage1.obj
 0002:00002658       ??_7CConfigPage1@@6B@      0000000140029658     ConfigPage1.obj
 0002:00003520       ?classCConfigSheet@CConfigSheet@@2UCRuntimeClass@@B 000000014002a520     ConfigSheet.obj
 0002:00003568       ??_7CConfigSheet@@6B@      000000014002a568     ConfigSheet.obj
 0002:00004448       ??_7CDropEdit@@6B@         000000014002b448     DropEdit.obj
 0002:00005168       ?classCMyButton@CMyButton@@2UCRuntimeClass@@B 000000014002c168     MyButton.obj
 0002:000051b8       ??_7CMyButton@@6B@         000000014002c1b8     MyButton.obj
 0002:00005e48       ?classCMyDialog@CMyDialog@@2UCRuntimeClass@@B 000000014002ce48     MyDialog.obj
 0002:00005e98       ??_7CMyDialog@@6B@         000000014002ce98     MyDialog.obj
 0002:00006c58       ?classCMyList@CMyList@@2UCRuntimeClass@@B 000000014002dc58     MyList.obj
 0002:00006ca8       ??_7CMyList@@6B@           000000014002dca8     MyList.obj
 0002:00007bf0       ?classCOleDropInfo@COleDropInfo@@2UCRuntimeClass@@B 000000014002ebf0     OleDropTargetEx.obj
 0002:00007c38       ??_7COleDropInfo@@6B@      000000014002ec38     OleDropTargetEx.obj
 0002:00007c78       ??_7COleDropTargetEx@@6B@  000000014002ec78     OleDropTargetEx.obj
 0002:00008f48       ??_7CPropertyPageApp@@6B@  000000014002ff48     PropertyPage.obj
 0002:0000af68       ??_7CAboutDlg@@6B@         0000000140031f68     PropertyPageDlg.obj
 0002:0000b378       ??_7CPropertyPageDlg@@6B@  0000000140032378     PropertyPageDlg.obj
 0002:0000bbd8       ??_7CLinkCtrl@@6B@         0000000140032bd8     PropertyPageDlg.obj
 0002:00026e84       ?_Min@?$AtlLimits@H@ATL@@2HB 000000014004de84     stdafx.obj
 0002:00026e88       ?_Max@?$AtlLimits@H@ATL@@2HB 000000014004de88     stdafx.obj
 0002:00026e8c       ?_Min@?$AtlLimits@I@ATL@@2IB 000000014004de8c     stdafx.obj
 0002:00026e90       ?_Max@?$AtlLimits@I@ATL@@2IB 000000014004de90     stdafx.obj
 0002:00026e94       ?_Min@?$AtlLimits@J@ATL@@2JB 000000014004de94     stdafx.obj
 0002:00026e98       ?_Max@?$AtlLimits@J@ATL@@2JB 000000014004de98     stdafx.obj
 0002:00026e9c       ?_Min@?$AtlLimits@K@ATL@@2KB 000000014004de9c     stdafx.obj
 0002:00026ea0       ?_Max@?$AtlLimits@K@ATL@@2KB 000000014004dea0     stdafx.obj
 0002:00026ea8       ?_Min@?$AtlLimits@_J@ATL@@2_JB 000000014004dea8     stdafx.obj
 0002:00026eb8       ?_Max@?$AtlLimits@_J@ATL@@2_JB 000000014004deb8     stdafx.obj
 0002:00026ec8       ?_Min@?$AtlLimits@_K@ATL@@2_KB 000000014004dec8     stdafx.obj
 0002:00026ed8       ?_Max@?$AtlLimits@_K@ATL@@2_KB 000000014004ded8     stdafx.obj
 0002:00026ee4       ?VT@?$CVarTypeInfo@D@ATL@@2GB 000000014004dee4     stdafx.obj
 0002:00026ee8       ?pmField@?$CVarTypeInfo@D@ATL@@2QEQtagVARIANT@@DEQ3@ 000000014004dee8     stdafx.obj
 0002:00026eec       ?VT@?$CVarTypeInfo@E@ATL@@2GB 000000014004deec     stdafx.obj
 0002:00026ef0       ?pmField@?$CVarTypeInfo@E@ATL@@2QEQtagVARIANT@@EEQ3@ 000000014004def0     stdafx.obj
 0002:00026ef4       ?VT@?$CVarTypeInfo@PEAD@ATL@@2GB 000000014004def4     stdafx.obj
 0002:00026ef8       ?pmField@?$CVarTypeInfo@PEAD@ATL@@2QEQtagVARIANT@@PEADEQ3@ 000000014004def8     stdafx.obj
 0002:00026efc       ?VT@?$CVarTypeInfo@PEAE@ATL@@2GB 000000014004defc     stdafx.obj
 0002:00026f00       ?pmField@?$CVarTypeInfo@PEAE@ATL@@2QEQtagVARIANT@@PEAEEQ3@ 000000014004df00     stdafx.obj
 0002:00026f04       ?VT@?$CVarTypeInfo@F@ATL@@2GB 000000014004df04     stdafx.obj
 0002:00026f08       ?pmField@?$CVarTypeInfo@F@ATL@@2QEQtagVARIANT@@FEQ3@ 000000014004df08     stdafx.obj
 0002:00026f0c       ?VT@?$CVarTypeInfo@PEAF@ATL@@2GB 000000014004df0c     stdafx.obj
 0002:00026f10       ?pmField@?$CVarTypeInfo@PEAF@ATL@@2QEQtagVARIANT@@PEAFEQ3@ 000000014004df10     stdafx.obj
 0002:00026f14       ?VT@?$CVarTypeInfo@G@ATL@@2GB 000000014004df14     stdafx.obj
 0002:00026f18       ?pmField@?$CVarTypeInfo@G@ATL@@2QEQtagVARIANT@@GEQ3@ 000000014004df18     stdafx.obj
 0002:00026f1c       ?VT@?$CVarTypeInfo@PEAG@ATL@@2GB 000000014004df1c     stdafx.obj
 0002:00026f20       ?pmField@?$CVarTypeInfo@PEAG@ATL@@2QEQtagVARIANT@@PEAGEQ3@ 000000014004df20     stdafx.obj
 0002:00026f24       ?VT@?$CVarTypeInfo@H@ATL@@2GB 000000014004df24     stdafx.obj
 0002:00026f28       ?pmField@?$CVarTypeInfo@H@ATL@@2QEQtagVARIANT@@HEQ3@ 000000014004df28     stdafx.obj
 0002:00026f2c       ?VT@?$CVarTypeInfo@PEAH@ATL@@2GB 000000014004df2c     stdafx.obj
 0002:00026f30       ?pmField@?$CVarTypeInfo@PEAH@ATL@@2QEQtagVARIANT@@PEAHEQ3@ 000000014004df30     stdafx.obj
 0002:00026f34       ?VT@?$CVarTypeInfo@I@ATL@@2GB 000000014004df34     stdafx.obj
 0002:00026f38       ?pmField@?$CVarTypeInfo@I@ATL@@2QEQtagVARIANT@@IEQ3@ 000000014004df38     stdafx.obj
 0002:00026f3c       ?VT@?$CVarTypeInfo@PEAI@ATL@@2GB 000000014004df3c     stdafx.obj
 0002:00026f40       ?pmField@?$CVarTypeInfo@PEAI@ATL@@2QEQtagVARIANT@@PEAIEQ3@ 000000014004df40     stdafx.obj
 0002:00026f44       ?VT@?$CVarTypeInfo@J@ATL@@2GB 000000014004df44     stdafx.obj
 0002:00026f48       ?pmField@?$CVarTypeInfo@J@ATL@@2QEQtagVARIANT@@JEQ3@ 000000014004df48     stdafx.obj
 0002:00026f4c       ?VT@?$CVarTypeInfo@PEAJ@ATL@@2GB 000000014004df4c     stdafx.obj
 0002:00026f50       ?pmField@?$CVarTypeInfo@PEAJ@ATL@@2QEQtagVARIANT@@PEAJEQ3@ 000000014004df50     stdafx.obj
 0002:00026f54       ?VT@?$CVarTypeInfo@K@ATL@@2GB 000000014004df54     stdafx.obj
 0002:00026f58       ?pmField@?$CVarTypeInfo@K@ATL@@2QEQtagVARIANT@@KEQ3@ 000000014004df58     stdafx.obj
 0002:00026f5c       ?VT@?$CVarTypeInfo@PEAK@ATL@@2GB 000000014004df5c     stdafx.obj
 0002:00026f60       ?pmField@?$CVarTypeInfo@PEAK@ATL@@2QEQtagVARIANT@@PEAKEQ3@ 000000014004df60     stdafx.obj
 0002:00026f64       ?VT@?$CVarTypeInfo@_J@ATL@@2GB 000000014004df64     stdafx.obj
 0002:00026f68       ?pmField@?$CVarTypeInfo@_J@ATL@@2QEQtagVARIANT@@_JEQ3@ 000000014004df68     stdafx.obj
 0002:00026f6c       ?VT@?$CVarTypeInfo@PEA_J@ATL@@2GB 000000014004df6c     stdafx.obj
 0002:00026f70       ?pmField@?$CVarTypeInfo@PEA_J@ATL@@2QEQtagVARIANT@@PEA_JEQ3@ 000000014004df70     stdafx.obj
 0002:00026f74       ?VT@?$CVarTypeInfo@_K@ATL@@2GB 000000014004df74     stdafx.obj
 0002:00026f78       ?pmField@?$CVarTypeInfo@_K@ATL@@2QEQtagVARIANT@@_KEQ3@ 000000014004df78     stdafx.obj
 0002:00026f7c       ?VT@?$CVarTypeInfo@PEA_K@ATL@@2GB 000000014004df7c     stdafx.obj
 0002:00026f80       ?pmField@?$CVarTypeInfo@PEA_K@ATL@@2QEQtagVARIANT@@PEA_KEQ3@ 000000014004df80     stdafx.obj
 0002:00026f84       ?VT@?$CVarTypeInfo@M@ATL@@2GB 000000014004df84     stdafx.obj
 0002:00026f88       ?pmField@?$CVarTypeInfo@M@ATL@@2QEQtagVARIANT@@MEQ3@ 000000014004df88     stdafx.obj
 0002:00026f8c       ?VT@?$CVarTypeInfo@PEAM@ATL@@2GB 000000014004df8c     stdafx.obj
 0002:00026f90       ?pmField@?$CVarTypeInfo@PEAM@ATL@@2QEQtagVARIANT@@PEAMEQ3@ 000000014004df90     stdafx.obj
 0002:00026f94       ?VT@?$CVarTypeInfo@N@ATL@@2GB 000000014004df94     stdafx.obj
 0002:00026f98       ?pmField@?$CVarTypeInfo@N@ATL@@2QEQtagVARIANT@@NEQ3@ 000000014004df98     stdafx.obj
 0002:00026f9c       ?VT@?$CVarTypeInfo@PEAN@ATL@@2GB 000000014004df9c     stdafx.obj
 0002:00026fa0       ?pmField@?$CVarTypeInfo@PEAN@ATL@@2QEQtagVARIANT@@PEANEQ3@ 000000014004dfa0     stdafx.obj
 0002:00026fa4       ?VT@?$CVarTypeInfo@PEAUtagVARIANT@@@ATL@@2GB 000000014004dfa4     stdafx.obj
 0002:00026fa8       ?VT@?$CVarTypeInfo@PEA_W@ATL@@2GB 000000014004dfa8     stdafx.obj
 0002:00026fb0       ?pmField@?$CVarTypeInfo@PEA_W@ATL@@2QEQtagVARIANT@@PEA_WEQ3@ 000000014004dfb0     stdafx.obj
 0002:00026fb4       ?VT@?$CVarTypeInfo@PEAPEA_W@ATL@@2GB 000000014004dfb4     stdafx.obj
 0002:00026fb8       ?pmField@?$CVarTypeInfo@PEAPEA_W@ATL@@2QEQtagVARIANT@@PEAPEA_WEQ3@ 000000014004dfb8     stdafx.obj
 0002:00026fbc       ?VT@?$CVarTypeInfo@PEAUIUnknown@@@ATL@@2GB 000000014004dfbc     stdafx.obj
 0002:00026fc0       ?pmField@?$CVarTypeInfo@PEAUIUnknown@@@ATL@@2QEQtagVARIANT@@PEAUIUnknown@@EQ3@ 000000014004dfc0     stdafx.obj
 0002:00026fc4       ?VT@?$CVarTypeInfo@PEAPEAUIUnknown@@@ATL@@2GB 000000014004dfc4     stdafx.obj
 0002:00026fc8       ?pmField@?$CVarTypeInfo@PEAPEAUIUnknown@@@ATL@@2QEQtagVARIANT@@PEAPEAUIUnknown@@EQ3@ 000000014004dfc8     stdafx.obj
 0002:00026fcc       ?VT@?$CVarTypeInfo@PEAUIDispatch@@@ATL@@2GB 000000014004dfcc     stdafx.obj
 0002:00026fd0       ?pmField@?$CVarTypeInfo@PEAUIDispatch@@@ATL@@2QEQtagVARIANT@@PEAUIDispatch@@EQ3@ 000000014004dfd0     stdafx.obj
 0002:00026fd4       ?VT@?$CVarTypeInfo@PEAPEAUIDispatch@@@ATL@@2GB 000000014004dfd4     stdafx.obj
 0002:00026fd8       ?pmField@?$CVarTypeInfo@PEAPEAUIDispatch@@@ATL@@2QEQtagVARIANT@@PEAPEAUIDispatch@@EQ3@ 000000014004dfd8     stdafx.obj
 0002:00026fdc       ?VT@?$CVarTypeInfo@TtagCY@@@ATL@@2GB 000000014004dfdc     stdafx.obj
 0002:00026fe0       ?pmField@?$CVarTypeInfo@TtagCY@@@ATL@@2QEQtagVARIANT@@TtagCY@@EQ3@ 000000014004dfe0     stdafx.obj
 0002:00026fe4       ?VT@?$CVarTypeInfo@PEATtagCY@@@ATL@@2GB 000000014004dfe4     stdafx.obj
 0002:00026fe8       ?pmField@?$CVarTypeInfo@PEATtagCY@@@ATL@@2QEQtagVARIANT@@PEATtagCY@@EQ3@ 000000014004dfe8     stdafx.obj
 0002:00026fec       ?c_bIsMFCDLLTraits@?$_MFCDLLTraitsCheck@DV?$StrTraitMFC_DLL@DV?$ChTraitsCRT@D@ATL@@@@@_CSTRING_IMPL_@ATL@@2_NB 000000014004dfec     stdafx.obj
 0002:00026fed       ?c_bIsMFCDLLTraits@?$_MFCDLLTraitsCheck@_WV?$StrTraitMFC_DLL@_WV?$ChTraitsCRT@_W@ATL@@@@@_CSTRING_IMPL_@ATL@@2_NB 000000014004dfed     stdafx.obj
 0002:00026ff0       ?generic@CArchiveException@@2HB 000000014004dff0     stdafx.obj
 0002:00026ff4       ?generic@CFileException@@2HB 000000014004dff4     stdafx.obj
 0002:00026ff8       ?Millisecond@CFileTime@ATL@@2_KB 000000014004dff8     stdafx.obj
 0002:00027008       ?Second@CFileTime@ATL@@2_KB 000000014004e008     stdafx.obj
 0002:00027018       ?Minute@CFileTime@ATL@@2_KB 000000014004e018     stdafx.obj
 0002:00027028       ?Hour@CFileTime@ATL@@2_KB  000000014004e028     stdafx.obj
 0002:00027038       ?Day@CFileTime@ATL@@2_KB   000000014004e038     stdafx.obj
 0002:00027048       ?Week@CFileTime@ATL@@2_KB  000000014004e048     stdafx.obj
 0002:00027058       ?szInvalidDateTime@ATL@@3QEB_WEB 000000014004e058     stdafx.obj
 0002:00027068       ?szInvalidDateTimeSpan@ATL@@3QEB_WEB 000000014004e068     stdafx.obj
 0002:00027078       LIBID_ATLLib               000000014004e078     stdafx.obj
 0002:00027090       CLSID_Registrar            000000014004e090     stdafx.obj
 0002:000270a8       IID_IRegistrar             000000014004e0a8     stdafx.obj
 0002:000270c0       IID_IAxWinHostWindow       000000014004e0c0     stdafx.obj
 0002:000270d8       IID_IAxWinAmbientDispatch  000000014004e0d8     stdafx.obj
 0002:000270f0       IID_IInternalConnection    000000014004e0f0     stdafx.obj
 0002:00027108       IID_IDocHostUIHandlerDispatch 000000014004e108     stdafx.obj
 0002:00027120       IID_IAxWinHostWindowLic    000000014004e120     stdafx.obj
 0002:00027138       IID_IAxWinAmbientDispatchEx 000000014004e138     stdafx.obj
 0002:0002714c       ?MAX_VALUE@CRegParser@ATL@@1HB 000000014004e14c     stdafx.obj
 0002:00027150       ?MAX_TYPE@CRegParser@ATL@@1HB 000000014004e150     stdafx.obj
 0002:00027160       ?rgszNeverDelete@CRegParser@ATL@@1QBQEB_WB 000000014004e160     stdafx.obj
 0002:000271d4       ?cbNeverDelete@CRegParser@ATL@@1HB 000000014004e1d4     stdafx.obj
 0002:000271d8       ?c_bIsMFCDLLTraits@?$_MFCDLLTraitsCheck@DV?$StrTraitATL@DV?$ChTraitsCRT@D@ATL@@@ATL@@@_CSTRING_IMPL_@ATL@@2_NB 000000014004e1d8     stdafx.obj
 0002:000271d9       ?c_bIsMFCDLLTraits@?$_MFCDLLTraitsCheck@_WV?$StrTraitATL@_WV?$ChTraitsCRT@_W@ATL@@@ATL@@@_CSTRING_IMPL_@ATL@@2_NB 000000014004e1d9     stdafx.obj
 0002:000271dc       ?sc_redShift@ColorF@D2D1@@0IB 000000014004e1dc     stdafx.obj
 0002:000271e0       ?sc_greenShift@ColorF@D2D1@@0IB 000000014004e1e0     stdafx.obj
 0002:000271e4       ?sc_blueShift@ColorF@D2D1@@0IB 000000014004e1e4     stdafx.obj
 0002:000271e8       ?sc_redMask@ColorF@D2D1@@0IB 000000014004e1e8     stdafx.obj
 0002:000271ec       ?sc_greenMask@ColorF@D2D1@@0IB 000000014004e1ec     stdafx.obj
 0002:000271f0       ?sc_blueMask@ColorF@D2D1@@0IB 000000014004e1f0     stdafx.obj
 0002:000271f8       ?CLSID_WinFormsControl@@3U_GUID@@B 000000014004e1f8     stdafx.obj
 0002:0002720c       ?createAlphaChannel@CImage@ATL@@2KB 000000014004e20c     stdafx.obj
 0002:00027210       ?excludeGIF@CImage@ATL@@2KB 000000014004e210     stdafx.obj
 0002:00027214       ?excludeBMP@CImage@ATL@@2KB 000000014004e214     stdafx.obj
 0002:00027218       ?excludeEMF@CImage@ATL@@2KB 000000014004e218     stdafx.obj
 0002:0002721c       ?excludeWMF@CImage@ATL@@2KB 000000014004e21c     stdafx.obj
 0002:00027220       ?excludeJPEG@CImage@ATL@@2KB 000000014004e220     stdafx.obj
 0002:00027224       ?excludePNG@CImage@ATL@@2KB 000000014004e224     stdafx.obj
 0002:00027228       ?excludeTIFF@CImage@ATL@@2KB 000000014004e228     stdafx.obj
 0002:0002722c       ?excludeIcon@CImage@ATL@@2KB 000000014004e22c     stdafx.obj
 0002:00027230       ?excludeOther@CImage@ATL@@2KB 000000014004e230     stdafx.obj
 0002:00027234       ?excludeDefaultLoad@CImage@ATL@@2KB 000000014004e234     stdafx.obj
 0002:00027238       ?excludeDefaultSave@CImage@ATL@@2KB 000000014004e238     stdafx.obj
 0002:0002723c       ?excludeValid@CImage@ATL@@2KB 000000014004e23c     stdafx.obj
 0002:00027248       ??_7Thank_you@Define_the_symbol__ATL_MIXED@@6B@ 000000014004e248     stdafx.obj
 0002:000281a8       ?classCTestDlg@CTestDlg@@2UCRuntimeClass@@B 000000014004f1a8     TestDlg.obj
 0002:000281f8       ??_7CTestDlg@@6B@          000000014004f1f8     TestDlg.obj
 0002:000286dc       ?m_nTimerID@CSystemTray@@1IB 000000014004f6dc     SystemTray.obj
 0002:00029a30       ?classCSystemTray@CSystemTray@@2UCRuntimeClass@@B 0000000140050a30     SystemTray.obj
 0002:00029a78       ??_7CSystemTray@@6B@       0000000140050a78     SystemTray.obj
 0002:00029eb8       ??_7?$CArray@PEAUHICON__@@PEAU1@@@6B@ 0000000140050eb8     SystemTray.obj
 0002:00029f20       ??_C@_0FB@LMHGDHBC@c?3?2program?5files?5?$CIx86?$CJ?2microsoft@ 0000000140050f20     SystemTray.obj
 0002:00029f88       ??_C@_1BA@JIHHIEDE@?$AAT?$AAy?$AAp?$AAe?$AAL?$AAi?$AAb?$AA?$AA@ 0000000140050f88     mfcs100ud:nolib.obj
 0002:00029f98       ??_C@_1BC@EAHCMADO@?$AAS?$AAo?$AAf?$AAt?$AAw?$AAa?$AAr?$AAe?$AA?$AA@ 0000000140050f98     mfcs100ud:nolib.obj
 0002:00029fb0       ??_C@_1O@GBFINDKL@?$AAS?$AAY?$AAS?$AAT?$AAE?$AAM?$AA?$AA@ 0000000140050fb0     mfcs100ud:nolib.obj
 0002:00029fc0       ??_C@_1BC@IBECJAAI@?$AAS?$AAE?$AAC?$AAU?$AAR?$AAI?$AAT?$AAY?$AA?$AA@ 0000000140050fc0     mfcs100ud:nolib.obj
 0002:00029fd8       ??_C@_17OMAOINJK@?$AAS?$AAA?$AAM?$AA?$AA@ 0000000140050fd8     mfcs100ud:nolib.obj
 0002:00029fe0       ??_C@_19HLLLM@?$AAM?$AAi?$AAm?$AAe?$AA?$AA@ 0000000140050fe0     mfcs100ud:nolib.obj
 0002:00029ff0       ??_C@_1BC@MAICEHGI@?$AAH?$AAa?$AAr?$AAd?$AAw?$AAa?$AAr?$AAe?$AA?$AA@ 0000000140050ff0     mfcs100ud:nolib.obj
 0002:0002a008       ??_C@_1BE@EKPAFMCP@?$AAI?$AAn?$AAt?$AAe?$AAr?$AAf?$AAa?$AAc?$AAe?$AA?$AA@ 0000000140051008     mfcs100ud:nolib.obj
 0002:0002a020       ??_C@_1BC@NKMMNMGL@?$AAF?$AAi?$AAl?$AAe?$AAT?$AAy?$AAp?$AAe?$AA?$AA@ 0000000140051020     mfcs100ud:nolib.obj
 0002:0002a038       ??_C@_1CK@OEKPKBNA@?$AAC?$AAo?$AAm?$AAp?$AAo?$AAn?$AAe?$AAn?$AAt?$AA?5?$AAC?$AAa?$AAt?$AAe?$AAg?$AAo?$AAr?$AAi?$AAe?$AAs?$AA?$AA@ 0000000140051038     mfcs100ud:nolib.obj
 0002:0002a068       ??_C@_1M@KANJNLFF@?$AAC?$AAL?$AAS?$AAI?$AAD?$AA?$AA@ 0000000140051068     mfcs100ud:nolib.obj
 0002:0002a078       ??_C@_1M@EJNEECMJ@?$AAA?$AAp?$AAp?$AAI?$AAD?$AA?$AA@ 0000000140051078     mfcs100ud:nolib.obj
 0002:0002a088       ??_C@_1O@JDLOHAN@?$AAD?$AAe?$AAl?$AAe?$AAt?$AAe?$AA?$AA@ 0000000140051088     mfcs100ud:nolib.obj
 0002:0002a098       ??_C@_1BC@GCKHIPE@?$AAN?$AAo?$AAR?$AAe?$AAm?$AAo?$AAv?$AAe?$AA?$AA@ 0000000140051098     mfcs100ud:nolib.obj
 0002:0002a0b0       ??_C@_1BI@JFAIJMHL@?$AAF?$AAo?$AAr?$AAc?$AAe?$AAR?$AAe?$AAm?$AAo?$AAv?$AAe?$AA?$AA@ 00000001400510b0     mfcs100ud:nolib.obj
 0002:0002a0c8       ??_C@_17LLMMEOJD@?$AAV?$AAa?$AAl?$AA?$AA@ 00000001400510c8     mfcs100ud:nolib.obj
 0002:0002a0d0       ??_C@_13OPKGLAFF@?$AAB?$AA?$AA@ 00000001400510d0     mfcs100ud:nolib.obj
 0002:0002a0d4       ??_C@_13MKMNOPIJ@?$AAD?$AA?$AA@ 00000001400510d4     mfcs100ud:nolib.obj
 0002:0002a0d8       ??_C@_13LHMFKAAD@?$AAM?$AA?$AA@ 00000001400510d8     mfcs100ud:nolib.obj
 0002:0002a0dc       ??_C@_13HADIAKP@?$AAS?$AA?$AA@ 00000001400510dc     mfcs100ud:nolib.obj
 0002:0002a0e0       ??_C@_1CK@NMKILLLB@?$AAI?$AAn?$AAv?$AAa?$AAl?$AAi?$AAd?$AA?5?$AAD?$AAa?$AAt?$AAe?$AAT?$AAi?$AAm?$AAe?$AAS?$AAp?$AAa?$AAn?$AA?$AA@ 00000001400510e0     mfcs100ud:nolib.obj
 0002:0002a110       ??_C@_1CC@FFBCNGIJ@?$AAI?$AAn?$AAv?$AAa?$AAl?$AAi?$AAd?$AA?5?$AAD?$AAa?$AAt?$AAe?$AAT?$AAi?$AAm?$AAe?$AA?$AA@ 0000000140051110     mfcs100ud:nolib.obj
 0002:0002a134       ?VT@?$_CVarTypeInfo@D@ATL@@2GB 0000000140051134     mfcs100ud:nolib.obj
 0002:0002a138       ?pmField@?$_CVarTypeInfo@D@ATL@@2QEQtagVARIANT@@DEQ3@ 0000000140051138     mfcs100ud:nolib.obj
 0002:0002a13c       ?VT@?$_CVarTypeInfo@E@ATL@@2GB 000000014005113c     mfcs100ud:nolib.obj
 0002:0002a140       ?pmField@?$_CVarTypeInfo@E@ATL@@2QEQtagVARIANT@@EEQ3@ 0000000140051140     mfcs100ud:nolib.obj
 0002:0002a144       ?VT@?$_CVarTypeInfo@PEAD@ATL@@2GB 0000000140051144     mfcs100ud:nolib.obj
 0002:0002a148       ?pmField@?$_CVarTypeInfo@PEAD@ATL@@2QEQtagVARIANT@@PEADEQ3@ 0000000140051148     mfcs100ud:nolib.obj
 0002:0002a14c       ?VT@?$_CVarTypeInfo@PEAE@ATL@@2GB 000000014005114c     mfcs100ud:nolib.obj
 0002:0002a150       ?pmField@?$_CVarTypeInfo@PEAE@ATL@@2QEQtagVARIANT@@PEAEEQ3@ 0000000140051150     mfcs100ud:nolib.obj
 0002:0002a154       ?VT@?$_CVarTypeInfo@F@ATL@@2GB 0000000140051154     mfcs100ud:nolib.obj
 0002:0002a158       ?pmField@?$_CVarTypeInfo@F@ATL@@2QEQtagVARIANT@@FEQ3@ 0000000140051158     mfcs100ud:nolib.obj
 0002:0002a15c       ?VT@?$_CVarTypeInfo@PEAF@ATL@@2GB 000000014005115c     mfcs100ud:nolib.obj
 0002:0002a160       ?pmField@?$_CVarTypeInfo@PEAF@ATL@@2QEQtagVARIANT@@PEAFEQ3@ 0000000140051160     mfcs100ud:nolib.obj
 0002:0002a164       ?VT@?$_CVarTypeInfo@G@ATL@@2GB 0000000140051164     mfcs100ud:nolib.obj
 0002:0002a168       ?pmField@?$_CVarTypeInfo@G@ATL@@2QEQtagVARIANT@@GEQ3@ 0000000140051168     mfcs100ud:nolib.obj
 0002:0002a16c       ?VT@?$_CVarTypeInfo@PEAG@ATL@@2GB 000000014005116c     mfcs100ud:nolib.obj
 0002:0002a170       ?pmField@?$_CVarTypeInfo@PEAG@ATL@@2QEQtagVARIANT@@PEAGEQ3@ 0000000140051170     mfcs100ud:nolib.obj
 0002:0002a174       ?VT@?$_CVarTypeInfo@H@ATL@@2GB 0000000140051174     mfcs100ud:nolib.obj
 0002:0002a178       ?pmField@?$_CVarTypeInfo@H@ATL@@2QEQtagVARIANT@@HEQ3@ 0000000140051178     mfcs100ud:nolib.obj
 0002:0002a17c       ?VT@?$_CVarTypeInfo@PEAH@ATL@@2GB 000000014005117c     mfcs100ud:nolib.obj
 0002:0002a180       ?pmField@?$_CVarTypeInfo@PEAH@ATL@@2QEQtagVARIANT@@PEAHEQ3@ 0000000140051180     mfcs100ud:nolib.obj
 0002:0002a184       ?VT@?$_CVarTypeInfo@I@ATL@@2GB 0000000140051184     mfcs100ud:nolib.obj
 0002:0002a188       ?pmField@?$_CVarTypeInfo@I@ATL@@2QEQtagVARIANT@@IEQ3@ 0000000140051188     mfcs100ud:nolib.obj
 0002:0002a18c       ?VT@?$_CVarTypeInfo@PEAI@ATL@@2GB 000000014005118c     mfcs100ud:nolib.obj
 0002:0002a190       ?pmField@?$_CVarTypeInfo@PEAI@ATL@@2QEQtagVARIANT@@PEAIEQ3@ 0000000140051190     mfcs100ud:nolib.obj
 0002:0002a194       ?VT@?$_CVarTypeInfo@J@ATL@@2GB 0000000140051194     mfcs100ud:nolib.obj
 0002:0002a198       ?pmField@?$_CVarTypeInfo@J@ATL@@2QEQtagVARIANT@@JEQ3@ 0000000140051198     mfcs100ud:nolib.obj
 0002:0002a19c       ?VT@?$_CVarTypeInfo@PEAJ@ATL@@2GB 000000014005119c     mfcs100ud:nolib.obj
 0002:0002a1a0       ?pmField@?$_CVarTypeInfo@PEAJ@ATL@@2QEQtagVARIANT@@PEAJEQ3@ 00000001400511a0     mfcs100ud:nolib.obj
 0002:0002a1a4       ?VT@?$_CVarTypeInfo@K@ATL@@2GB 00000001400511a4     mfcs100ud:nolib.obj
 0002:0002a1a8       ?pmField@?$_CVarTypeInfo@K@ATL@@2QEQtagVARIANT@@KEQ3@ 00000001400511a8     mfcs100ud:nolib.obj
 0002:0002a1ac       ?VT@?$_CVarTypeInfo@PEAK@ATL@@2GB 00000001400511ac     mfcs100ud:nolib.obj
 0002:0002a1b0       ?pmField@?$_CVarTypeInfo@PEAK@ATL@@2QEQtagVARIANT@@PEAKEQ3@ 00000001400511b0     mfcs100ud:nolib.obj
 0002:0002a1b4       ?VT@?$_CVarTypeInfo@_J@ATL@@2GB 00000001400511b4     mfcs100ud:nolib.obj
 0002:0002a1b8       ?pmField@?$_CVarTypeInfo@_J@ATL@@2QEQtagVARIANT@@_JEQ3@ 00000001400511b8     mfcs100ud:nolib.obj
 0002:0002a1bc       ?VT@?$_CVarTypeInfo@PEA_J@ATL@@2GB 00000001400511bc     mfcs100ud:nolib.obj
 0002:0002a1c0       ?pmField@?$_CVarTypeInfo@PEA_J@ATL@@2QEQtagVARIANT@@PEA_JEQ3@ 00000001400511c0     mfcs100ud:nolib.obj
 0002:0002a1c4       ?VT@?$_CVarTypeInfo@_K@ATL@@2GB 00000001400511c4     mfcs100ud:nolib.obj
 0002:0002a1c8       ?pmField@?$_CVarTypeInfo@_K@ATL@@2QEQtagVARIANT@@_KEQ3@ 00000001400511c8     mfcs100ud:nolib.obj
 0002:0002a1cc       ?VT@?$_CVarTypeInfo@PEA_K@ATL@@2GB 00000001400511cc     mfcs100ud:nolib.obj
 0002:0002a1d0       ?pmField@?$_CVarTypeInfo@PEA_K@ATL@@2QEQtagVARIANT@@PEA_KEQ3@ 00000001400511d0     mfcs100ud:nolib.obj
 0002:0002a1d4       ?VT@?$_CVarTypeInfo@M@ATL@@2GB 00000001400511d4     mfcs100ud:nolib.obj
 0002:0002a1d8       ?pmField@?$_CVarTypeInfo@M@ATL@@2QEQtagVARIANT@@MEQ3@ 00000001400511d8     mfcs100ud:nolib.obj
 0002:0002a1dc       ?VT@?$_CVarTypeInfo@PEAM@ATL@@2GB 00000001400511dc     mfcs100ud:nolib.obj
 0002:0002a1e0       ?pmField@?$_CVarTypeInfo@PEAM@ATL@@2QEQtagVARIANT@@PEAMEQ3@ 00000001400511e0     mfcs100ud:nolib.obj
 0002:0002a1e4       ?VT@?$_CVarTypeInfo@N@ATL@@2GB 00000001400511e4     mfcs100ud:nolib.obj
 0002:0002a1e8       ?pmField@?$_CVarTypeInfo@N@ATL@@2QEQtagVARIANT@@NEQ3@ 00000001400511e8     mfcs100ud:nolib.obj
 0002:0002a1ec       ?VT@?$_CVarTypeInfo@PEAN@ATL@@2GB 00000001400511ec     mfcs100ud:nolib.obj
 0002:0002a1f0       ?pmField@?$_CVarTypeInfo@PEAN@ATL@@2QEQtagVARIANT@@PEANEQ3@ 00000001400511f0     mfcs100ud:nolib.obj
 0002:0002a1f4       ?VT@?$_CVarTypeInfo@PEAUtagVARIANT@@@ATL@@2GB 00000001400511f4     mfcs100ud:nolib.obj
 0002:0002a1f8       ?VT@?$_CVarTypeInfo@PEA_W@ATL@@2GB 00000001400511f8     mfcs100ud:nolib.obj
 0002:0002a200       ?pmField@?$_CVarTypeInfo@PEA_W@ATL@@2QEQtagVARIANT@@PEA_WEQ3@ 0000000140051200     mfcs100ud:nolib.obj
 0002:0002a204       ?VT@?$_CVarTypeInfo@PEAPEA_W@ATL@@2GB 0000000140051204     mfcs100ud:nolib.obj
 0002:0002a208       ?pmField@?$_CVarTypeInfo@PEAPEA_W@ATL@@2QEQtagVARIANT@@PEAPEA_WEQ3@ 0000000140051208     mfcs100ud:nolib.obj
 0002:0002a20c       ?VT@?$_CVarTypeInfo@PEAUIUnknown@@@ATL@@2GB 000000014005120c     mfcs100ud:nolib.obj
 0002:0002a210       ?pmField@?$_CVarTypeInfo@PEAUIUnknown@@@ATL@@2QEQtagVARIANT@@PEAUIUnknown@@EQ3@ 0000000140051210     mfcs100ud:nolib.obj
 0002:0002a214       ?VT@?$_CVarTypeInfo@PEAPEAUIUnknown@@@ATL@@2GB 0000000140051214     mfcs100ud:nolib.obj
 0002:0002a218       ?pmField@?$_CVarTypeInfo@PEAPEAUIUnknown@@@ATL@@2QEQtagVARIANT@@PEAPEAUIUnknown@@EQ3@ 0000000140051218     mfcs100ud:nolib.obj
 0002:0002a21c       ?VT@?$_CVarTypeInfo@PEAUIDispatch@@@ATL@@2GB 000000014005121c     mfcs100ud:nolib.obj
 0002:0002a220       ?pmField@?$_CVarTypeInfo@PEAUIDispatch@@@ATL@@2QEQtagVARIANT@@PEAUIDispatch@@EQ3@ 0000000140051220     mfcs100ud:nolib.obj
 0002:0002a224       ?VT@?$_CVarTypeInfo@PEAPEAUIDispatch@@@ATL@@2GB 0000000140051224     mfcs100ud:nolib.obj
 0002:0002a228       ?pmField@?$_CVarTypeInfo@PEAPEAUIDispatch@@@ATL@@2QEQtagVARIANT@@PEAPEAUIDispatch@@EQ3@ 0000000140051228     mfcs100ud:nolib.obj
 0002:0002a22c       ?VT@?$_CVarTypeInfo@TtagCY@@@ATL@@2GB 000000014005122c     mfcs100ud:nolib.obj
 0002:0002a230       ?pmField@?$_CVarTypeInfo@TtagCY@@@ATL@@2QEQtagVARIANT@@TtagCY@@EQ3@ 0000000140051230     mfcs100ud:nolib.obj
 0002:0002a234       ?VT@?$_CVarTypeInfo@PEATtagCY@@@ATL@@2GB 0000000140051234     mfcs100ud:nolib.obj
 0002:0002a238       ?pmField@?$_CVarTypeInfo@PEATtagCY@@@ATL@@2QEQtagVARIANT@@PEATtagCY@@EQ3@ 0000000140051238     mfcs100ud:nolib.obj
 0002:0002a2c0       ??_C@_1GK@CJIHEMBP@?$AAf?$AA?3?$AA?2?$AAd?$AAd?$AA?2?$AAv?$AAc?$AAt?$AAo?$AAo?$AAl?$AAs?$AA?2?$AAc?$AAr?$AAt?$AA_?$AAb?$AAl?$AAd?$AA?2?$AAs?$AAe?$AAl?$AAf?$AA_?$AA6?$AA4?$AA_?$AAa?$AAm@ 00000001400512c0     msvcrtd:wcrtexew.obj
 0002:0002a330       ??_C@_1FA@DALEHHGL@?$AA_?$AA_?$AAn?$AAa?$AAt?$AAi?$AAv?$AAe?$AA_?$AAs?$AAt?$AAa?$AAr?$AAt?$AAu?$AAp?$AA_?$AAs?$AAt?$AAa?$AAt?$AAe?$AA?5?$AA?$DN?$AA?$DN?$AA?5?$AA_?$AA_?$AAi?$AAn?$AAi?$AAt@ 0000000140051330     msvcrtd:wcrtexew.obj
 0002:0002a388       ??_7type_info@@6B@         0000000140051388     msvcrtd:ti_inst.obj
 0002:0002a390       ?ProcessDetach@NativeDll@<CrtImplementationDetails>@@0IB 0000000140051390     msvcrtd:unhandld.obj
 0002:0002a394       ?ProcessAttach@NativeDll@<CrtImplementationDetails>@@0IB 0000000140051394     msvcrtd:unhandld.obj
 0002:0002a398       ?ThreadAttach@NativeDll@<CrtImplementationDetails>@@0IB 0000000140051398     msvcrtd:unhandld.obj
 0002:0002a39c       ?ThreadDetach@NativeDll@<CrtImplementationDetails>@@0IB 000000014005139c     msvcrtd:unhandld.obj
 0002:0002a3a0       ?ProcessVerifier@NativeDll@<CrtImplementationDetails>@@0IB 00000001400513a0     msvcrtd:unhandld.obj
 0002:0002a3a8       ??_C@_0BP@OGBCLIBO@Stack?5around?5_alloca?5corrupted?$AA@ 00000001400513a8     msvcrtd:_userapi_.obj
 0002:0002a3c8       ??_C@_0CK@CNLNOEPB@Local?5variable?5used?5before?5initi@ 00000001400513c8     msvcrtd:_userapi_.obj
 0002:0002a3f8       ??_C@_0BI@CIGMDCBH@Stack?5memory?5corruption?$AA@ 00000001400513f8     msvcrtd:_userapi_.obj
 0002:0002a410       ??_C@_0CK@FEGOIOPB@Cast?5to?5smaller?5type?5causing?5los@ 0000000140051410     msvcrtd:_userapi_.obj
 0002:0002a440       ??_C@_0BJ@HEGAHDFO@Stack?5pointer?5corruption?$AA@ 0000000140051440     msvcrtd:_userapi_.obj
 0002:0002a488       ??_C@_0BO@GNIAFIKK@Unknown?5Runtime?5Check?5Error?6?$AN?$AA@ 0000000140051488     msvcrtd:_error_.obj
 0002:0002a4a8       ??_C@_0CM@NGINOKPC@Stack?5memory?5around?5_alloca?5was?5@ 00000001400514a8     msvcrtd:_error_.obj
 0002:0002a4d8       ??_C@_0DG@HKJMLLLP@A?5local?5variable?5was?5used?5before@ 00000001400514d8     msvcrtd:_error_.obj
 0002:0002a510       ??_C@_0BN@FFOINMNJ@Stack?5memory?5was?5corrupted?6?$AN?$AA@ 0000000140051510     msvcrtd:_error_.obj
 0002:0002a530       ??_C@_0BBN@GPMLNJCF@A?5cast?5to?5a?5smaller?5data?5type?5ha@ 0000000140051530     msvcrtd:_error_.obj
 0002:0002a650       ??_C@_0NN@NGPKDKPD@The?5value?5of?5ESP?5was?5not?5properl@ 0000000140051650     msvcrtd:_error_.obj
 0002:0002a7f0       ??_C@_0CA@IODNCDPG@Run?9Time?5Check?5Failure?5?$CD?$CFd?5?9?5?$CFs?$AA@ 00000001400517f0     msvcrtd:_error_.obj
 0002:0002a810       ??_C@_0BE@GNBOBNCK@Unknown?5Module?5Name?$AA@ 0000000140051810     msvcrtd:_error_.obj
 0002:0002a828       ??_C@_0BB@PFFGGCJP@Unknown?5Filename?$AA@ 0000000140051828     msvcrtd:_error_.obj
 0002:0002a840       ??_C@_1EA@NFKNIFJP@?$AAR?$AAu?$AAn?$AA?9?$AAT?$AAi?$AAm?$AAe?$AA?5?$AAC?$AAh?$AAe?$AAc?$AAk?$AA?5?$AAF?$AAa?$AAi?$AAl?$AAu?$AAr?$AAe?$AA?5?$AA?$CD?$AA?$CF?$AAd?$AA?5?$AA?9?$AA?5?$AA?$CF?$AAs?$AA?$AA@ 0000000140051840     msvcrtd:_error_.obj
 0002:0002a880       ??_C@_1GM@OLMCBDMB@?$AAR?$AAu?$AAn?$AAt?$AAi?$AAm?$AAe?$AA?5?$AAC?$AAh?$AAe?$AAc?$AAk?$AA?5?$AAE?$AAr?$AAr?$AAo?$AAr?$AA?4?$AA?6?$AA?$AN?$AA?5?$AAU?$AAn?$AAa?$AAb?$AAl?$AAe?$AA?5?$AAt?$AAo@ 0000000140051880     msvcrtd:_error_.obj
 0002:0002a8f0       ??_C@_0CG@IAFNJNEE@Stack?5corrupted?5near?5unknown?5var@ 00000001400518f0     msvcrtd:_error_.obj
 0002:0002a920       ??_C@_0EJ@LJKNEOLN@Stack?5area?5around?5_alloca?5memory@ 0000000140051920     msvcrtd:_error_.obj
 0002:0002a96c       ??_C@_01EEMJAFIK@?6?$AA@   000000014005196c     msvcrtd:_error_.obj
 0002:0002a970       ??_C@_08KJEDNCKC@?$CFs?$CFs?$CFs?$CFs?$AA@ 0000000140051970     msvcrtd:_error_.obj
 0002:0002a97c       ??_C@_02LLMPMKNF@?$DO?5?$AA@ 000000014005197c     msvcrtd:_error_.obj
 0002:0002a980       ??_C@_0BE@EJFBLEMJ@?$CFs?$CFs?$CFp?$CFs?$CFI64d?$CFs?$CFd?$CFs?$AA@ 0000000140051980     msvcrtd:_error_.obj
 0002:0002a9a0       ??_C@_0EI@CLEPFNGI@Stack?5area?5around?5_alloca?5memory@ 00000001400519a0     msvcrtd:_error_.obj
 0002:0002a9e8       ??_C@_07DFDJCKFN@?6Size?3?5?$AA@ 00000001400519e8     msvcrtd:_error_.obj
 0002:0002a9f0       ??_C@_0N@MHFFIMFG@?6Address?3?50x?$AA@ 00000001400519f0     msvcrtd:_error_.obj
 0002:0002aa00       ??_C@_0CK@DKGBICFE@?6Allocation?5number?5within?5this?5f@ 0000000140051a00     msvcrtd:_error_.obj
 0002:0002aa30       ??_C@_08OMAHNMHJ@?6Data?3?5?$DM?$AA@ 0000000140051a30     msvcrtd:_error_.obj
 0002:0002aa40       ??_C@_09FOPFMPEJ@wsprintfA?$AA@ 0000000140051a40     msvcrtd:_error_.obj
 0002:0002aa50       ??_C@_1BG@OILDLIOJ@?$AAu?$AAs?$AAe?$AAr?$AA3?$AA2?$AA?4?$AAd?$AAl?$AAl?$AA?$AA@ 0000000140051a50     msvcrtd:_error_.obj
 0002:0002aa68       ??_C@_05MKKEDADM@?$CF?42X?5?$AA@ 0000000140051a68     msvcrtd:_error_.obj
 0002:0002aa70       ??_C@_0DE@OHJBPMBP@A?5variable?5is?5being?5used?5without@ 0000000140051a70     msvcrtd:_error_.obj
 0002:0002ab04       ??_C@_01KDCPPGHE@r?$AA@    0000000140051b04     msvcrtd:_pdblkup_.obj
 0002:0002ab08       ??_C@_0BB@KCIACLNC@PDBOpenValidate5?$AA@ 0000000140051b08     msvcrtd:_pdblkup_.obj
 0002:0002ab20       ??_C@_1BG@EABPBLLF@?$AAP?$AAr?$AAo?$AAd?$AAu?$AAc?$AAt?$AAD?$AAi?$AAr?$AA?$AA@ 0000000140051b20     msvcrtd:_pdblkup_.obj
 0002:0002ab40       ??_C@_1HE@GLNEPNIP@?$AAS?$AAO?$AAF?$AAT?$AAW?$AAA?$AAR?$AAE?$AA?2?$AAW?$AAo?$AAw?$AA6?$AA4?$AA3?$AA2?$AAN?$AAo?$AAd?$AAe?$AA?2?$AAM?$AAi?$AAc?$AAr?$AAo?$AAs?$AAo?$AAf?$AAt?$AA?2?$AAV@ 0000000140051b40     msvcrtd:_pdblkup_.obj
 0002:0002abb8       ??_C@_0M@HLOHPNFA@RegCloseKey?$AA@ 0000000140051bb8     msvcrtd:_pdblkup_.obj
 0002:0002abc8       ??_C@_0BB@GLNAEDBD@RegQueryValueExW?$AA@ 0000000140051bc8     msvcrtd:_pdblkup_.obj
 0002:0002abe0       ??_C@_0O@COHOBMLB@RegOpenKeyExW?$AA@ 0000000140051be0     msvcrtd:_pdblkup_.obj
 0002:0002abf0       ??_C@_1BK@GAEMIDIL@?$AAA?$AAD?$AAV?$AAA?$AAP?$AAI?$AA3?$AA2?$AA?4?$AAD?$AAL?$AAL?$AA?$AA@ 0000000140051bf0     msvcrtd:_pdblkup_.obj
 0002:0002ac30       ?OLE_DATETIME_HALFSECOND@COleDateTimeSpan@ATL@@2NB 0000000140051c30     atlsd:ATLComTime.obj
 0002:0002ac40       __mask@@NegDouble@         0000000140051c40     atlsd:ATLComTime.obj
 0002:0002ac50       ??_C@_1HC@KDFLFDAN@?$AAf?$AA?3?$AA?2?$AAd?$AAd?$AA?2?$AAv?$AAc?$AAt?$AAo?$AAo?$AAl?$AAs?$AA?2?$AAv?$AAc?$AA7?$AAl?$AAi?$AAb?$AAs?$AA?2?$AAs?$AAh?$AAi?$AAp?$AA?2?$AAa?$AAt?$AAl?$AAm?$AAf@ 0000000140051c50     atlsd:ATLComTime.obj
 0002:0002acc8       ??_C@_1CK@EJIOFIDN@?$AAG?$AAe?$AAt?$AAS?$AAt?$AAa?$AAt?$AAu?$AAs?$AA?$CI?$AA?$CJ?$AA?5?$AA?$DN?$AA?$DN?$AA?5?$AAv?$AAa?$AAl?$AAi?$AAd?$AA?$AA@ 0000000140051cc8     atlsd:ATLComTime.obj
 0002:0002acf8       __real@4038000000000000    0000000140051cf8     atlsd:ATLComTime.obj
 0002:0002ad00       __real@4096800000000000    0000000140051d00     atlsd:ATLComTime.obj
 0002:0002ad08       __real@40f5180000000000    0000000140051d08     atlsd:ATLComTime.obj
 0002:0002ad10       ??_C@_1DM@OGJDCIKM@?$AAd?$AAa?$AAt?$AAe?$AAS?$AAp?$AAa?$AAn?$AA?4?$AAG?$AAe?$AAt?$AAS?$AAt?$AAa?$AAt?$AAu?$AAs?$AA?$CI?$AA?$CJ?$AA?5?$AA?$DN?$AA?$DN?$AA?5?$AAv?$AAa?$AAl?$AAi?$AAd?$AA?$AA@ 0000000140051d10     atlsd:ATLComTime.obj
 0002:0002ad50       __real@414b964c80000000    0000000140051d50     atlsd:ATLComTime.obj
 0002:0002ad58       __real@c14b964c80000000    0000000140051d58     atlsd:ATLComTime.obj
 0002:0002ad60       ??_C@_1DE@BFCNHLID@?$AAd?$AAa?$AAt?$AAe?$AA?4?$AAG?$AAe?$AAt?$AAS?$AAt?$AAa?$AAt?$AAu?$AAs?$AA?$CI?$AA?$CJ?$AA?5?$AA?$DN?$AA?$DN?$AA?5?$AAv?$AAa?$AAl?$AAi?$AAd?$AA?$AA@ 0000000140051d60     atlsd:ATLComTime.obj
 0002:0002ad98       __real@c124103400000000    0000000140051d98     atlsd:ATLComTime.obj
 0002:0002ada0       __real@4146924080000000    0000000140051da0     atlsd:ATLComTime.obj
 0002:0002adb0       ??_C@_1GI@OEDEDFFB@?$AAf?$AA?3?$AA?2?$AAd?$AAd?$AA?2?$AAv?$AAc?$AAt?$AAo?$AAo?$AAl?$AAs?$AA?2?$AAv?$AAc?$AA7?$AAl?$AAi?$AAb?$AAs?$AA?2?$AAs?$AAh?$AAi?$AAp?$AA?2?$AAa?$AAt?$AAl?$AAm?$AAf@ 0000000140051db0     atlsd:ATLComTime.obj
 0002:0002ae18       ??_C@_1BM@GBBOFEAE@?$AA_?$AA_?$AAa?$AAt?$AAl?$AA_?$AAc?$AAo?$AAn?$AAd?$AAV?$AAa?$AAl?$AA?$AA@ 0000000140051e18     atlsd:ATLComTime.obj
 0002:0002ae40       ??_C@_1GM@OMLOBEGL@?$AAf?$AA?3?$AA?2?$AAd?$AAd?$AA?2?$AAv?$AAc?$AAt?$AAo?$AAo?$AAl?$AAs?$AA?2?$AAv?$AAc?$AA7?$AAl?$AAi?$AAb?$AAs?$AA?2?$AAs?$AAh?$AAi?$AAp?$AA?2?$AAa?$AAt?$AAl?$AAm?$AAf@ 0000000140051e40     atlsd:ATLComTime.obj
 0002:0002aeb0       ??_C@_1M@HLGKFCJM@?$AAf?$AAa?$AAl?$AAs?$AAe?$AA?$AA@ 0000000140051eb0     atlsd:ATLComTime.obj
 0002:0002aec0       ??_C@_0BF@IAAKIJDJ@AtlThrow?3?5hr?5?$DN?50x?$CFx?6?$AA@ 0000000140051ec0     atlsd:ATLComTime.obj
 0002:0002aed8       ??_C@_0DG@BLHODJEO@f?3?2dd?2vctools?2vc7libs?2ship?2atlmf@ 0000000140051ed8     atlsd:ATLComTime.obj
 0002:0002af10       ??_C@_1BK@NHHHCKNA@?$AAm?$AA_?$AAt?$AAi?$AAm?$AAe?$AA?5?$AA?$CB?$AA?$DN?$AA?5?$AA?9?$AA1?$AA?$AA@ 0000000140051f10     atlsd:atltime.obj
 0002:0002af30       ??_C@_1GM@GOMCALCH@?$AAf?$AA?3?$AA?2?$AAd?$AAd?$AA?2?$AAv?$AAc?$AAt?$AAo?$AAo?$AAl?$AAs?$AA?2?$AAv?$AAc?$AA7?$AAl?$AAi?$AAb?$AAs?$AA?2?$AAs?$AAh?$AAi?$AAp?$AA?2?$AAa?$AAt?$AAl?$AAm?$AAf@ 0000000140051f30     atlsd:atltime.obj
 0002:0002afa0       ??_C@_0BA@MKMIKKJB@atlTraceGeneral?$AA@ 0000000140051fa0     atlsd:atltrace.obj
 0002:0002afb0       ??_C@_0M@DGPFJEBB@atlTraceCOM?$AA@ 0000000140051fb0     atlsd:atltrace.obj
 0002:0002afc0       ??_C@_0L@LHELAKBP@atlTraceQI?$AA@ 0000000140051fc0     atlsd:atltrace.obj
 0002:0002afd0       ??_C@_0BC@MALHFBAO@atlTraceRegistrar?$AA@ 0000000140051fd0     atlsd:atltrace.obj
 0002:0002afe8       ??_C@_0BB@ILPPDKFL@atlTraceRefcount?$AA@ 0000000140051fe8     atlsd:atltrace.obj
 0002:0002b000       ??_C@_0BC@DGHHNKDC@atlTraceWindowing?$AA@ 0000000140052000     atlsd:atltrace.obj
 0002:0002b018       ??_C@_0BB@GHKJKKIE@atlTraceControls?$AA@ 0000000140052018     atlsd:atltrace.obj
 0002:0002b030       ??_C@_0BA@DKOAAGGM@atlTraceHosting?$AA@ 0000000140052030     atlsd:atltrace.obj
 0002:0002b040       ??_C@_0BB@BEBMGMDO@atlTraceDBClient?$AA@ 0000000140052040     atlsd:atltrace.obj
 0002:0002b058       ??_C@_0BD@KOADKDIA@atlTraceDBProvider?$AA@ 0000000140052058     atlsd:atltrace.obj
 0002:0002b070       ??_C@_0P@LNEGBOLO@atlTraceSnapin?$AA@ 0000000140052070     atlsd:atltrace.obj
 0002:0002b080       ??_C@_0BA@MCBFIDIC@atlTraceNotImpl?$AA@ 0000000140052080     atlsd:atltrace.obj
 0002:0002b090       ??_C@_0BD@PJPCCAKP@atlTraceAllocation?$AA@ 0000000140052090     atlsd:atltrace.obj
 0002:0002b0a8       ??_C@_0BC@PGMFNIFA@atlTraceException?$AA@ 00000001400520a8     atlsd:atltrace.obj
 0002:0002b0c0       ??_C@_0N@BNNILHBE@atlTraceTime?$AA@ 00000001400520c0     atlsd:atltrace.obj
 0002:0002b0d0       ??_C@_0O@MEOJAOKK@atlTraceCache?$AA@ 00000001400520d0     atlsd:atltrace.obj
 0002:0002b0e0       ??_C@_0BA@IDBKCKK@atlTraceStencil?$AA@ 00000001400520e0     atlsd:atltrace.obj
 0002:0002b0f0       ??_C@_0P@MBNHGHMI@atlTraceString?$AA@ 00000001400520f0     atlsd:atltrace.obj
 0002:0002b100       ??_C@_0M@IOBBMAHG@atlTraceMap?$AA@ 0000000140052100     atlsd:atltrace.obj
 0002:0002b110       ??_C@_0N@FEAAACHD@atlTraceUtil?$AA@ 0000000140052110     atlsd:atltrace.obj
 0002:0002b120       ??_C@_0BB@DNJDADMG@atlTraceSecurity?$AA@ 0000000140052120     atlsd:atltrace.obj
 0002:0002b138       ??_C@_0N@KLPNCFEE@atlTraceSync?$AA@ 0000000140052138     atlsd:atltrace.obj
 0002:0002b148       ??_C@_0O@KHOBHOBJ@atlTraceISAPI?$AA@ 0000000140052148     atlsd:atltrace.obj
 0002:0002b158       ??_C@_0N@BEIMPMHB@atlTraceUser?$AA@ 0000000140052158     atlsd:atltrace.obj
 0002:0002b168       ??_C@_0O@MKGGJJCH@atlTraceUser2?$AA@ 0000000140052168     atlsd:atltrace.obj
 0002:0002b178       ??_C@_0O@NDHNKIGG@atlTraceUser3?$AA@ 0000000140052178     atlsd:atltrace.obj
 0002:0002b188       ??_C@_0O@JMDMDOKB@atlTraceUser4?$AA@ 0000000140052188     atlsd:atltrace.obj
 0002:0002b198       ??_C@_06JMICFIKN@?$CFs_?$CF0x?$AA@ 0000000140052198     atlsd:Externs.obj
 0002:0002b1a0       ??_C@_0CM@OGPEFHLG@AtlDebugAllocator_FileMappingNam@ 00000001400521a0     atlsd:Externs.obj
 0002:0002b1d0       ??_C@_0CN@PLNFEEEE@AtlTraceModuleManager_ProcessAdd@ 00000001400521d0     atlsd:Externs.obj
 0002:0002b200       ??_C@_1HO@MNFHLCLF@?$AAf?$AA?3?$AA?2?$AAd?$AAd?$AA?2?$AAv?$AAc?$AAt?$AAo?$AAo?$AAl?$AAs?$AA?2?$AAv?$AAc?$AA7?$AAl?$AAi?$AAb?$AAs?$AA?2?$AAs?$AAh?$AAi?$AAp?$AA?2?$AAa?$AAt?$AAl?$AAm?$AAf@ 0000000140052200     atlsd:AtlDebugAPI.obj
 0002:0002b280       ??_C@_1BK@LIHAAANN@?$AAp?$AAM?$AAo?$AAd?$AAu?$AAl?$AAe?$AA?5?$AA?$CB?$AA?$DN?$AA?5?$AA0?$AA?$AA@ 0000000140052280     atlsd:AtlDebugAPI.obj
 0002:0002b2a0       ??_C@_1BM@DFEBCPM@?$AAp?$AAP?$AAr?$AAo?$AAc?$AAe?$AAs?$AAs?$AA?5?$AA?$CB?$AA?$DN?$AA?5?$AA0?$AA?$AA@ 00000001400522a0     atlsd:AtlDebugAPI.obj
 0002:0002b2bc       ??_C@_02DKCKIIND@?$CFs?$AA@ 00000001400522bc     atlsd:AtlDebugAPI.obj
 0002:0002b2c0       ??_C@_04FFDMEMDO@?$CFS?3?5?$AA@ 00000001400522c0     atlsd:AtlDebugAPI.obj
 0002:0002b2c8       ??_C@_09IIMHCEDG@?$CFs?$CI?$CFd?$CJ?5?3?5?$AA@ 00000001400522c8     atlsd:AtlDebugAPI.obj
 0002:0002b2d4       ??_C@_02KPKOKMHB@?$CFS?$AA@ 00000001400522d4     atlsd:AtlDebugAPI.obj
 0002:0002b2d8       ??_C@_19JCANECJL@?$AA?$CF?$AAs?$AA?3?$AA?5?$AA?$AA@ 00000001400522d8     atlsd:AtlDebugAPI.obj
 0002:0002b2e8       ??_C@_1BE@PGKGHBDF@?$AA?$CF?$AAS?$AA?$CI?$AA?$CF?$AAd?$AA?$CJ?$AA?5?$AA?3?$AA?5?$AA?$AA@ 00000001400522e8     atlsd:AtlDebugAPI.obj
 0002:0002b300       ??_C@_1DA@NMHCLMEJ@?$AAp?$AAA?$AAl?$AAl?$AAo?$AAc?$AAa?$AAt?$AAo?$AAr?$AA?9?$AA?$DO?$AAm?$AA_?$AAb?$AAS?$AAn?$AAa?$AAp?$AAs?$AAh?$AAo?$AAt?$AA?$AA@ 0000000140052300     atlsd:AtlDebugAPI.obj
 0002:0002b330       ??_C@_1CE@NDBHOLMF@?$AAp?$AAP?$AAr?$AAo?$AAc?$AAe?$AAs?$AAs?$AAI?$AAn?$AAf?$AAo?$AA?5?$AA?$CB?$AA?$DN?$AA?5?$AA0?$AA?$AA@ 0000000140052330     atlsd:AtlDebugAPI.obj
 0002:0002b358       ??_C@_1CC@ONKAHKMP@?$AAp?$AAM?$AAo?$AAd?$AAu?$AAl?$AAe?$AAI?$AAn?$AAf?$AAo?$AA?5?$AA?$CB?$AA?$DN?$AA?5?$AA0?$AA?$AA@ 0000000140052358     atlsd:AtlDebugAPI.obj
 0002:0002b380       ??_C@_1CG@BANGGBIE@?$AAp?$AAC?$AAa?$AAt?$AAe?$AAg?$AAo?$AAr?$AAy?$AAI?$AAn?$AAf?$AAo?$AA?5?$AA?$CB?$AA?$DN?$AA?5?$AA0?$AA?$AA@ 0000000140052380     atlsd:AtlDebugAPI.obj
 0002:0002b3a8       ??_C@_1BC@JOPFIJLO@?$AAp?$AAP?$AAr?$AAo?$AAc?$AAe?$AAs?$AAs?$AA?$AA@ 00000001400523a8     atlsd:AtlDebugAPI.obj
 0002:0002b3c0       ??_C@_1DM@CECLCIOA@?$AAp?$AAp?$AAC?$AAa?$AAt?$AAe?$AAg?$AAo?$AAr?$AAy?$AA?5?$AA?$CG?$AA?$CG?$AA?5?$AAp?$AAf?$AAn?$AAC?$AAr?$AAt?$AAD?$AAb?$AAg?$AAR?$AAe?$AAp?$AAo?$AAr?$AAt?$AA?$AA@ 00000001400523c0     atlsd:AtlDebugAPI.obj
 0002:0002b400       ??_C@_1HA@EFGOBFOA@?$AAf?$AA?3?$AA?2?$AAd?$AAd?$AA?2?$AAv?$AAc?$AAt?$AAo?$AAo?$AAl?$AAs?$AA?2?$AAv?$AAc?$AA7?$AAl?$AAi?$AAb?$AAs?$AA?2?$AAs?$AAh?$AAi?$AAp?$AA?2?$AAa?$AAt?$AAl?$AAm?$AAf@ 0000000140052400     atlsd:AtlDebugAPI.obj
 0002:0002b470       ??_C@_1EA@JHMKKLFC@?$AAn?$AAI?$AAn?$AAd?$AAe?$AAx?$AA?5?$AA?$DO?$AA?$DN?$AA?5?$AA0?$AA?5?$AA?$CG?$AA?$CG?$AA?5?$AAn?$AAI?$AAn?$AAd?$AAe?$AAx?$AA?5?$AA?$DM?$AA?5?$AAm?$AA_?$AAn?$AAS?$AAi?$AAz?$AAe?$AA?$AA@ 0000000140052470     atlsd:AtlDebugAPI.obj
 0002:0002b4b0       ??_C@_1GI@CLJCGCPP@?$AAf?$AA?3?$AA?2?$AAd?$AAd?$AA?2?$AAv?$AAc?$AAt?$AAo?$AAo?$AAl?$AAs?$AA?2?$AAv?$AAc?$AA7?$AAl?$AAi?$AAb?$AAs?$AA?2?$AAs?$AAh?$AAi?$AAp?$AA?2?$AAa?$AAt?$AAl?$AAm?$AAf@ 00000001400524b0     atlsd:AtlDebugAPI.obj
 0002:0002b518       ??_C@_1BC@PMINONJG@?$AAb?$AAS?$AAu?$AAc?$AAc?$AAe?$AAs?$AAs?$AA?$AA@ 0000000140052518     atlsd:Allocate.obj
 0002:0002b530       ??_C@_1HI@MDMANKNC@?$AAf?$AA?3?$AA?2?$AAd?$AAd?$AA?2?$AAv?$AAc?$AAt?$AAo?$AAo?$AAl?$AAs?$AA?2?$AAv?$AAc?$AA7?$AAl?$AAi?$AAb?$AAs?$AA?2?$AAs?$AAh?$AAi?$AAp?$AA?2?$AAa?$AAt?$AAl?$AAm?$AAf@ 0000000140052530     atlsd:Allocate.obj
 0002:0002b5a8       ??_C@_1DG@LHMNHOH@?$AA?$CB?$AAm?$AA_?$AAh?$AAM?$AAa?$AAp?$AA?5?$AA?$CG?$AA?$CG?$AA?5?$AA?$CB?$AAm?$AA_?$AAp?$AAB?$AAu?$AAf?$AAf?$AAe?$AAr?$AAS?$AAt?$AAa?$AAr?$AAt?$AA?$AA@ 00000001400525a8     atlsd:Allocate.obj
 0002:0002b5e0       ??_C@_1CC@JCNIBNON@?$AAi?$AAM?$AAo?$AAd?$AAu?$AAl?$AAe?$AA?5?$AA?$DM?$AA?5?$AAm?$AAo?$AAd?$AAc?$AAn?$AAt?$AA?$AA@ 00000001400525e0     atlsd:Allocate.obj
 0002:0002b610       ??_C@_1HO@KONLCGL@?$AA?$CI?$AAi?$AAC?$AAa?$AAt?$AAe?$AAg?$AAo?$AAr?$AAy?$AA?5?$AA?$DM?$AA?5?$AAm?$AA_?$AAp?$AAP?$AAr?$AAo?$AAc?$AAe?$AAs?$AAs?$AA?9?$AA?$DO?$AAC?$AAa?$AAt?$AAe?$AAg?$AAo?$AAr@ 0000000140052610     atlsd:Allocate.obj
 0002:0002b690       ??_C@_1BG@EIHNOMMF@?$AAm?$AA_?$AAp?$AAP?$AAr?$AAo?$AAc?$AAe?$AAs?$AAs?$AA?$AA@ 0000000140052690     atlsd:Allocate.obj
 0002:0002b6b0       ??_C@_1IO@GJLKCBCE@?$AAf?$AA?3?$AA?2?$AAd?$AAd?$AA?2?$AAv?$AAc?$AAt?$AAo?$AAo?$AAl?$AAs?$AA?2?$AAv?$AAc?$AA7?$AAl?$AAi?$AAb?$AAs?$AA?2?$AAs?$AAh?$AAi?$AAp?$AA?2?$AAa?$AAt?$AAl?$AAm?$AAf@ 00000001400526b0     atlsd:Allocate.obj
 0002:0002b740       ??_C@_1BK@GFEAMNLJ@?$AAn?$AAC?$AAo?$AAo?$AAk?$AAi?$AAe?$AA?5?$AA?$CB?$AA?$DN?$AA?5?$AA0?$AA?$AA@ 0000000140052740     atlsd:Allocate.obj
 0002:0002b760       ??_C@_1BO@OAGIAJOK@?$AAp?$AAC?$AAa?$AAt?$AAe?$AAg?$AAo?$AAr?$AAy?$AA?5?$AA?$CB?$AA?$DN?$AA?5?$AA0?$AA?$AA@ 0000000140052760     atlsd:Allocate.obj
 0002:0002b780       ??_C@_11LOCGONAA@?$AA?$AA@ 0000000140052780     atlsd:AtlTraceModuleManager.obj
 0002:0002b7c8       ??_C@_0DH@EMOHNEGB@f?3?2dd?2vctools?2vc7libs?2ship?2atlmf@ 00000001400527c8     mfcs100ud:appmodul.obj
 0002:0002c030       ??_R4CConfigPage0@@6B@     0000000140053030     ConfigPage0.obj
 0002:0002c060       ??_R3CConfigPage0@@8       0000000140053060     ConfigPage0.obj
 0002:0002c078       ??_R2CConfigPage0@@8       0000000140053078     ConfigPage0.obj
 0002:0002c0b8       ??_R1A@?0A@EA@CConfigPage0@@8 00000001400530b8     ConfigPage0.obj
 0002:0002c0e8       ??_R1A@?0A@EA@CPropertyPage@@8 00000001400530e8     ConfigPage0.obj
 0002:0002c118       ??_R3CPropertyPage@@8      0000000140053118     ConfigPage0.obj
 0002:0002c130       ??_R2CPropertyPage@@8      0000000140053130     ConfigPage0.obj
 0002:0002c168       ??_R1A@?0A@EA@CDialog@@8   0000000140053168     ConfigPage0.obj
 0002:0002c198       ??_R3CDialog@@8            0000000140053198     ConfigPage0.obj
 0002:0002c1b0       ??_R2CDialog@@8            00000001400531b0     ConfigPage0.obj
 0002:0002c1e0       ??_R1A@?0A@EA@CWnd@@8      00000001400531e0     ConfigPage0.obj
 0002:0002c210       ??_R3CWnd@@8               0000000140053210     ConfigPage0.obj
 0002:0002c228       ??_R2CWnd@@8               0000000140053228     ConfigPage0.obj
 0002:0002c250       ??_R1A@?0A@EA@CCmdTarget@@8 0000000140053250     ConfigPage0.obj
 0002:0002c280       ??_R3CCmdTarget@@8         0000000140053280     ConfigPage0.obj
 0002:0002c298       ??_R2CCmdTarget@@8         0000000140053298     ConfigPage0.obj
 0002:0002c2b0       ??_R1A@?0A@EA@CObject@@8   00000001400532b0     ConfigPage0.obj
 0002:0002c2e0       ??_R3CObject@@8            00000001400532e0     ConfigPage0.obj
 0002:0002c2f8       ??_R2CObject@@8            00000001400532f8     ConfigPage0.obj
 0002:0002c308       ??_R4CConfigPage1@@6B@     0000000140053308     ConfigPage1.obj
 0002:0002c338       ??_R3CConfigPage1@@8       0000000140053338     ConfigPage1.obj
 0002:0002c350       ??_R2CConfigPage1@@8       0000000140053350     ConfigPage1.obj
 0002:0002c390       ??_R1A@?0A@EA@CConfigPage1@@8 0000000140053390     ConfigPage1.obj
 0002:0002c3c0       ??_R4CConfigSheet@@6B@     00000001400533c0     ConfigSheet.obj
 0002:0002c3f0       ??_R3CConfigSheet@@8       00000001400533f0     ConfigSheet.obj
 0002:0002c408       ??_R2CConfigSheet@@8       0000000140053408     ConfigSheet.obj
 0002:0002c440       ??_R1A@?0A@EA@CConfigSheet@@8 0000000140053440     ConfigSheet.obj
 0002:0002c470       ??_R1A@?0A@EA@CPropertySheet@@8 0000000140053470     ConfigSheet.obj
 0002:0002c4a0       ??_R3CPropertySheet@@8     00000001400534a0     ConfigSheet.obj
 0002:0002c4b8       ??_R2CPropertySheet@@8     00000001400534b8     ConfigSheet.obj
 0002:0002c4e8       ??_R4CDropEdit@@6B@        00000001400534e8     DropEdit.obj
 0002:0002c518       ??_R3CDropEdit@@8          0000000140053518     DropEdit.obj
 0002:0002c530       ??_R2CDropEdit@@8          0000000140053530     DropEdit.obj
 0002:0002c568       ??_R1A@?0A@EA@CDropEdit@@8 0000000140053568     DropEdit.obj
 0002:0002c598       ??_R1A@?0A@EA@CEdit@@8     0000000140053598     DropEdit.obj
 0002:0002c5c8       ??_R3CEdit@@8              00000001400535c8     DropEdit.obj
 0002:0002c5e0       ??_R2CEdit@@8              00000001400535e0     DropEdit.obj
 0002:0002c610       ??_R4CMyButton@@6B@        0000000140053610     MyButton.obj
 0002:0002c640       ??_R3CMyButton@@8          0000000140053640     MyButton.obj
 0002:0002c658       ??_R2CMyButton@@8          0000000140053658     MyButton.obj
 0002:0002c690       ??_R1A@?0A@EA@CMyButton@@8 0000000140053690     MyButton.obj
 0002:0002c6c0       ??_R1A@?0A@EA@CButton@@8   00000001400536c0     MyButton.obj
 0002:0002c6f0       ??_R3CButton@@8            00000001400536f0     MyButton.obj
 0002:0002c708       ??_R2CButton@@8            0000000140053708     MyButton.obj
 0002:0002c738       ??_R4CMyDialog@@6B@        0000000140053738     MyDialog.obj
 0002:0002c768       ??_R3CMyDialog@@8          0000000140053768     MyDialog.obj
 0002:0002c780       ??_R2CMyDialog@@8          0000000140053780     MyDialog.obj
 0002:0002c7c0       ??_R1A@?0A@EA@CMyDialog@@8 00000001400537c0     MyDialog.obj
 0002:0002c7f0       ??_R1A@?0A@EA@CDialogEx@@8 00000001400537f0     MyDialog.obj
 0002:0002c820       ??_R3CDialogEx@@8          0000000140053820     MyDialog.obj
 0002:0002c838       ??_R2CDialogEx@@8          0000000140053838     MyDialog.obj
 0002:0002c870       ??_R4CMyList@@6B@          0000000140053870     MyList.obj
 0002:0002c8a0       ??_R3CMyList@@8            00000001400538a0     MyList.obj
 0002:0002c8b8       ??_R2CMyList@@8            00000001400538b8     MyList.obj
 0002:0002c8f0       ??_R1A@?0A@EA@CMyList@@8   00000001400538f0     MyList.obj
 0002:0002c920       ??_R1A@?0A@EA@CListCtrl@@8 0000000140053920     MyList.obj
 0002:0002c950       ??_R3CListCtrl@@8          0000000140053950     MyList.obj
 0002:0002c968       ??_R2CListCtrl@@8          0000000140053968     MyList.obj
 0002:0002c998       ??_R4COleDropInfo@@6B@     0000000140053998     OleDropTargetEx.obj
 0002:0002c9c8       ??_R3COleDropInfo@@8       00000001400539c8     OleDropTargetEx.obj
 0002:0002c9e0       ??_R2COleDropInfo@@8       00000001400539e0     OleDropTargetEx.obj
 0002:0002c9f8       ??_R1A@?0A@EA@COleDropInfo@@8 00000001400539f8     OleDropTargetEx.obj
 0002:0002ca28       ??_R4COleDropTargetEx@@6B@ 0000000140053a28     OleDropTargetEx.obj
 0002:0002ca58       ??_R3COleDropTargetEx@@8   0000000140053a58     OleDropTargetEx.obj
 0002:0002ca70       ??_R2COleDropTargetEx@@8   0000000140053a70     OleDropTargetEx.obj
 0002:0002caa0       ??_R1A@?0A@EA@COleDropTargetEx@@8 0000000140053aa0     OleDropTargetEx.obj
 0002:0002cad0       ??_R1A@?0A@EA@COleDropTarget@@8 0000000140053ad0     OleDropTargetEx.obj
 0002:0002cb00       ??_R3COleDropTarget@@8     0000000140053b00     OleDropTargetEx.obj
 0002:0002cb18       ??_R2COleDropTarget@@8     0000000140053b18     OleDropTargetEx.obj
 0002:0002cb40       ??_R4CPropertyPageApp@@6B@ 0000000140053b40     PropertyPage.obj
 0002:0002cb70       ??_R3CPropertyPageApp@@8   0000000140053b70     PropertyPage.obj
 0002:0002cb88       ??_R2CPropertyPageApp@@8   0000000140053b88     PropertyPage.obj
 0002:0002cbc0       ??_R1A@?0A@EA@CPropertyPageApp@@8 0000000140053bc0     PropertyPage.obj
 0002:0002cbf0       ??_R1A@?0A@EA@CWinApp@@8   0000000140053bf0     PropertyPage.obj
 0002:0002cc20       ??_R3CWinApp@@8            0000000140053c20     PropertyPage.obj
 0002:0002cc38       ??_R2CWinApp@@8            0000000140053c38     PropertyPage.obj
 0002:0002cc68       ??_R1A@?0A@EA@CWinThread@@8 0000000140053c68     PropertyPage.obj
 0002:0002cc98       ??_R3CWinThread@@8         0000000140053c98     PropertyPage.obj
 0002:0002ccb0       ??_R2CWinThread@@8         0000000140053cb0     PropertyPage.obj
 0002:0002ccd8       ??_R4CAboutDlg@@6B@        0000000140053cd8     PropertyPageDlg.obj
 0002:0002cd08       ??_R3CAboutDlg@@8          0000000140053d08     PropertyPageDlg.obj
 0002:0002cd20       ??_R2CAboutDlg@@8          0000000140053d20     PropertyPageDlg.obj
 0002:0002cd60       ??_R1A@?0A@EA@CAboutDlg@@8 0000000140053d60     PropertyPageDlg.obj
 0002:0002cd90       ??_R4CPropertyPageDlg@@6B@ 0000000140053d90     PropertyPageDlg.obj
 0002:0002cdc0       ??_R3CPropertyPageDlg@@8   0000000140053dc0     PropertyPageDlg.obj
 0002:0002cdd8       ??_R2CPropertyPageDlg@@8   0000000140053dd8     PropertyPageDlg.obj
 0002:0002ce10       ??_R1A@?0A@EA@CPropertyPageDlg@@8 0000000140053e10     PropertyPageDlg.obj
 0002:0002ce40       ??_R4CLinkCtrl@@6B@        0000000140053e40     PropertyPageDlg.obj
 0002:0002ce70       ??_R3CLinkCtrl@@8          0000000140053e70     PropertyPageDlg.obj
 0002:0002ce88       ??_R2CLinkCtrl@@8          0000000140053e88     PropertyPageDlg.obj
 0002:0002ceb8       ??_R1A@?0A@EA@CLinkCtrl@@8 0000000140053eb8     PropertyPageDlg.obj
 0002:0002cee8       ??_R4Thank_you@Define_the_symbol__ATL_MIXED@@6B@ 0000000140053ee8     stdafx.obj
 0002:0002cf18       ??_R3Thank_you@Define_the_symbol__ATL_MIXED@@8 0000000140053f18     stdafx.obj
 0002:0002cf30       ??_R2Thank_you@Define_the_symbol__ATL_MIXED@@8 0000000140053f30     stdafx.obj
 0002:0002cf40       ??_R1A@?0A@EA@Thank_you@Define_the_symbol__ATL_MIXED@@8 0000000140053f40     stdafx.obj
 0002:0002cf70       ??_R4CTestDlg@@6B@         0000000140053f70     TestDlg.obj
 0002:0002cfa0       ??_R3CTestDlg@@8           0000000140053fa0     TestDlg.obj
 0002:0002cfb8       ??_R2CTestDlg@@8           0000000140053fb8     TestDlg.obj
 0002:0002cff0       ??_R1A@?0A@EA@CTestDlg@@8  0000000140053ff0     TestDlg.obj
 0002:0002d020       ??_R4CSystemTray@@6B@      0000000140054020     SystemTray.obj
 0002:0002d050       ??_R3CSystemTray@@8        0000000140054050     SystemTray.obj
 0002:0002d068       ??_R2CSystemTray@@8        0000000140054068     SystemTray.obj
 0002:0002d098       ??_R1A@?0A@EA@CSystemTray@@8 0000000140054098     SystemTray.obj
 0002:0002d0c8       ??_R4?$CArray@PEAUHICON__@@PEAU1@@@6B@ 00000001400540c8     SystemTray.obj
 0002:0002d0f8       ??_R3?$CArray@PEAUHICON__@@PEAU1@@@8 00000001400540f8     SystemTray.obj
 0002:0002d110       ??_R2?$CArray@PEAUHICON__@@PEAU1@@@8 0000000140054110     SystemTray.obj
 0002:0002d128       ??_R1A@?0A@EA@?$CArray@PEAUHICON__@@PEAU1@@@8 0000000140054128     SystemTray.obj
 0002:0002d158       ??_R4type_info@@6B@        0000000140054158     msvcrtd:ti_inst.obj
 0002:0002d180       ??_R3type_info@@8          0000000140054180     msvcrtd:ti_inst.obj
 0002:0002d198       ??_R2type_info@@8          0000000140054198     msvcrtd:ti_inst.obj
 0002:0002d1a8       ??_R1A@?0A@EA@type_info@@8 00000001400541a8     msvcrtd:ti_inst.obj
 0002:0002d340       __rtc_iaa                  0000000140054340     msvcrtd:_initsect_.obj
 0002:0002d638       __rtc_izz                  0000000140054638     msvcrtd:_initsect_.obj
 0002:0002d748       __rtc_taa                  0000000140054748     msvcrtd:_initsect_.obj
 0002:0002da40       __rtc_tzz                  0000000140054a40     msvcrtd:_initsect_.obj
 0002:00030d08       _TI1?AVCAtlException@ATL@@ 0000000140057d08     atlsd:Externs.obj
 0002:00030d28       _CTA1?AVCAtlException@ATL@@ 0000000140057d28     atlsd:Externs.obj
 0002:00030d38       _CT??_R0?AVCAtlException@ATL@@@84 0000000140057d38     atlsd:Externs.obj
 0002:00030e70       __pobjMapEntryFirst        0000000140057e70     stdafx.obj
 0002:00030f80       __pobjMapEntryLast         0000000140057f80     stdafx.obj
 0003:00000000       ??_R0?AVCConfigPage0@@@8   0000000140059000     ConfigPage0.obj
 0003:00000030       ??_R0?AVCPropertyPage@@@8  0000000140059030     ConfigPage0.obj
 0003:00000060       ??_R0?AVCDialog@@@8        0000000140059060     ConfigPage0.obj
 0003:00000088       ??_R0?AVCWnd@@@8           0000000140059088     ConfigPage0.obj
 0003:000000a8       ??_R0?AVCCmdTarget@@@8     00000001400590a8     ConfigPage0.obj
 0003:000000d0       ??_R0?AVCObject@@@8        00000001400590d0     ConfigPage0.obj
 0003:000000f8       ??_R0?AVCConfigPage1@@@8   00000001400590f8     ConfigPage1.obj
 0003:00000128       ??_R0?AVCConfigSheet@@@8   0000000140059128     ConfigSheet.obj
 0003:00000158       ??_R0?AVCPropertySheet@@@8 0000000140059158     ConfigSheet.obj
 0003:00000198       ??_R0?AVCDropEdit@@@8      0000000140059198     DropEdit.obj
 0003:000001c0       ??_R0?AVCEdit@@@8          00000001400591c0     DropEdit.obj
 0003:000001e8       ??_R0?AVCMyButton@@@8      00000001400591e8     MyButton.obj
 0003:00000210       ??_R0?AVCButton@@@8        0000000140059210     MyButton.obj
 0003:00000238       ??_R0?AVCMyDialog@@@8      0000000140059238     MyDialog.obj
 0003:00000260       ??_R0?AVCDialogEx@@@8      0000000140059260     MyDialog.obj
 0003:00000288       ??_R0?AVCMyList@@@8        0000000140059288     MyList.obj
 0003:000002b0       ??_R0?AVCListCtrl@@@8      00000001400592b0     MyList.obj
 0003:000002f0       ??_R0?AVCOleDropInfo@@@8   00000001400592f0     OleDropTargetEx.obj
 0003:00000320       ??_R0?AVCOleDropTargetEx@@@8 0000000140059320     OleDropTargetEx.obj
 0003:00000350       ??_R0?AVCOleDropTarget@@@8 0000000140059350     OleDropTargetEx.obj
 0003:00000380       ??_R0?AVCPropertyPageApp@@@8 0000000140059380     PropertyPage.obj
 0003:000003b0       ??_R0?AVCWinApp@@@8        00000001400593b0     PropertyPage.obj
 0003:000003d8       ??_R0?AVCWinThread@@@8     00000001400593d8     PropertyPage.obj
 0003:00000400       ??_R0?AVCAboutDlg@@@8      0000000140059400     PropertyPageDlg.obj
 0003:00000428       ??_R0?AVCPropertyPageDlg@@@8 0000000140059428     PropertyPageDlg.obj
 0003:00000460       ??_R0?AVCLinkCtrl@@@8      0000000140059460     PropertyPageDlg.obj
 0003:00000488       _pIncludeInitManaged       0000000140059488     stdafx.obj
 0003:00000498       ??_R0?AUThank_you@Define_the_symbol__ATL_MIXED@@@8 0000000140059498     stdafx.obj
 0003:000004e8       ??_R0?AVCTestDlg@@@8       00000001400594e8     TestDlg.obj
 0003:00000528       ?m_nMaxTooltipLength@CSystemTray@@1IA 0000000140059528     SystemTray.obj
 0003:00000538       ??_R0?AVCSystemTray@@@8    0000000140059538     SystemTray.obj
 0003:00000560       ??_R0PEAVCMemoryException@@@8 0000000140059560     SystemTray.obj
 0003:00000590       ??_R0?AV?$CArray@PEAUHICON__@@PEAU1@@@@8 0000000140059590     SystemTray.obj
 0003:000005d0       ??_R0?AVtype_info@@@8      00000001400595d0     msvcrtd:ti_inst.obj
 0003:000005f0       __security_cookie          00000001400595f0     msvcrtd:gs_cookie.obj
 0003:000005f8       __security_cookie_complement 00000001400595f8     msvcrtd:gs_cookie.obj
 0003:00000600       _fltused                   0000000140059600     msvcrtd:dllsupp.obj
 0003:00000604       __globallocalestatus       0000000140059604     msvcrtd:xthdloc.obj
 0003:00000608       __defaultmatherr           0000000140059608     msvcrtd:merr.obj
 0003:0000060c       __native_dllmain_reason    000000014005960c     msvcrtd:natstart.obj
 0003:00000610       __native_vcclrit_reason    0000000140059610     msvcrtd:natstart.obj
 0003:00000618       ?_RTC_ErrorLevels@@3PAHA   0000000140059618     msvcrtd:_error_.obj
 0003:00000630       ?g_pszUpdateEventName@@3PEBDEB 0000000140059630     atlsd:Externs.obj
 0003:00000638       ?g_pszAllocFileMapName@@3PEBDEB 0000000140059638     atlsd:Externs.obj
 0003:00000640       ?g_pszKernelObjFmt@@3PEBDEB 0000000140059640     atlsd:Externs.obj
 0003:00000648       ??_R0?AVCAtlException@ATL@@@8 0000000140059648     atlsd:Externs.obj
 0003:000007c0       ?theApp@@3VCPropertyPageApp@@A 00000001400597c0     PropertyPage.obj
 0003:00000968       ?_pAtlAutoThreadModule@ATL@@3PEAUIAtlAutoThreadModule@1@EA 0000000140059968     stdafx.obj
 0003:00000978       ?s_pfnPrevHook@CNoUIAssertHook@ATL@@0P6AHHPEADPEAH@ZEA 0000000140059978     stdafx.obj
 0003:00000981       ?m_bInitFailed@CAtlBaseModule@ATL@@2_NA 0000000140059981     stdafx.obj
 0003:00000988       ?s_pLog@CFixedStringMgr@ATL@@2PEAVIFixedStringLog@2@EA 0000000140059988     stdafx.obj
 0003:00000998       ?_pPerfRegFunc@ATL@@3P6AJPEAUHINSTANCE__@@@ZEA 0000000140059998     stdafx.obj
 0003:000009a8       ?_pPerfUnRegFunc@ATL@@3P6AJXZEA 00000001400599a8     stdafx.obj
 0003:000009b1       ?_AtlRegisterPerUser@ATL@@3_NA 00000001400599b1     stdafx.obj
 0003:000009b8       ?_pAtlModule@ATL@@3PEAVCAtlModule@1@EA 00000001400599b8     stdafx.obj
 0003:000009c8       ?m_libid@CAtlModule@ATL@@2U_GUID@@A 00000001400599c8     stdafx.obj
 0003:000009e0       ?_pModule@ATL@@3PEAVCComModule@1@EA 00000001400599e0     stdafx.obj
 0003:000009ec       ?ATL_CREATE_OBJECT@CComApartment@ATL@@2IA 00000001400599ec     stdafx.obj
 0003:00000a78       ?clash@Define_the_symbol__ATL_MIXED@@3UThank_you@1@A 0000000140059a78     stdafx.obj
 0003:00000a81       ?clash@Inconsistent_definition_of_symbol__ATL_MIXED@@3U_Please_define_it_the_same_throughout_your_project@1@A 0000000140059a81     stdafx.obj
 0003:00000a90       ?m_nTaskbarCreatedMsg@CSystemTray@@1IB 0000000140059a90     SystemTray.obj
 0003:00000aa0       ?m_wndInvisible@CSystemTray@@1VCWnd@@A 0000000140059aa0     SystemTray.obj
 0003:00000ba8       __afxForceEXCLUDE          0000000140059ba8     mfcs100ud:nolib.obj
 0003:00000bac       ?WM_DESTROYMODELESS@CDHtmlDialog@@1IA 0000000140059bac     mfcs100ud:nolib.obj
 0003:00000bb0       __afxForceSTDAFX           0000000140059bb0     mfcs100ud:stdafx.obj
 0003:00000be4       _commode                   0000000140059be4     msvcrtd:xncommod.obj
 0003:00000be8       _fmode                     0000000140059be8     msvcrtd:xtxtmode.obj
 0003:00000bec       _dowildcard                0000000140059bec     msvcrtd:wildcard.obj
 0003:00000bf0       _newmode                   0000000140059bf0     msvcrtd:_newmode.obj
 0003:00000c08       ?wsprintffp@@3P6AHPEADPEBDZZEA 0000000140059c08     msvcrtd:_error_.obj
 0003:00001190       ?atlTraceGeneral@ATL@@3VCTraceCategory@1@A 000000014005a190     atlsd:atltrace.obj
 0003:00001198       ?atlTraceCOM@ATL@@3VCTraceCategory@1@A 000000014005a198     atlsd:atltrace.obj
 0003:000011a0       ?atlTraceQI@ATL@@3VCTraceCategory@1@A 000000014005a1a0     atlsd:atltrace.obj
 0003:000011a8       ?atlTraceRegistrar@ATL@@3VCTraceCategory@1@A 000000014005a1a8     atlsd:atltrace.obj
 0003:000011b0       ?atlTraceRefcount@ATL@@3VCTraceCategory@1@A 000000014005a1b0     atlsd:atltrace.obj
 0003:000011b8       ?atlTraceWindowing@ATL@@3VCTraceCategory@1@A 000000014005a1b8     atlsd:atltrace.obj
 0003:000011c0       ?atlTraceControls@ATL@@3VCTraceCategory@1@A 000000014005a1c0     atlsd:atltrace.obj
 0003:000011c8       ?atlTraceHosting@ATL@@3VCTraceCategory@1@A 000000014005a1c8     atlsd:atltrace.obj
 0003:000011d0       ?atlTraceDBClient@ATL@@3VCTraceCategory@1@A 000000014005a1d0     atlsd:atltrace.obj
 0003:000011d8       ?atlTraceDBProvider@ATL@@3VCTraceCategory@1@A 000000014005a1d8     atlsd:atltrace.obj
 0003:000011e0       ?atlTraceSnapin@ATL@@3VCTraceCategory@1@A 000000014005a1e0     atlsd:atltrace.obj
 0003:000011e8       ?atlTraceNotImpl@ATL@@3VCTraceCategory@1@A 000000014005a1e8     atlsd:atltrace.obj
 0003:000011f0       ?atlTraceAllocation@ATL@@3VCTraceCategory@1@A 000000014005a1f0     atlsd:atltrace.obj
 0003:000011f8       ?atlTraceException@ATL@@3VCTraceCategory@1@A 000000014005a1f8     atlsd:atltrace.obj
 0003:00001200       ?atlTraceTime@ATL@@3VCTraceCategory@1@A 000000014005a200     atlsd:atltrace.obj
 0003:00001208       ?atlTraceCache@ATL@@3VCTraceCategory@1@A 000000014005a208     atlsd:atltrace.obj
 0003:00001210       ?atlTraceStencil@ATL@@3VCTraceCategory@1@A 000000014005a210     atlsd:atltrace.obj
 0003:00001218       ?atlTraceString@ATL@@3VCTraceCategory@1@A 000000014005a218     atlsd:atltrace.obj
 0003:00001220       ?atlTraceMap@ATL@@3VCTraceCategory@1@A 000000014005a220     atlsd:atltrace.obj
 0003:00001228       ?atlTraceUtil@ATL@@3VCTraceCategory@1@A 000000014005a228     atlsd:atltrace.obj
 0003:00001230       ?atlTraceSecurity@ATL@@3VCTraceCategory@1@A 000000014005a230     atlsd:atltrace.obj
 0003:00001238       ?atlTraceSync@ATL@@3VCTraceCategory@1@A 000000014005a238     atlsd:atltrace.obj
 0003:00001240       ?atlTraceISAPI@ATL@@3VCTraceCategory@1@A 000000014005a240     atlsd:atltrace.obj
 0003:00001248       ?atlTraceUser@ATL@@3VCTraceCategory@1@A 000000014005a248     atlsd:atltrace.obj
 0003:00001250       ?atlTraceUser2@ATL@@3VCTraceCategory@1@A 000000014005a250     atlsd:atltrace.obj
 0003:00001258       ?atlTraceUser3@ATL@@3VCTraceCategory@1@A 000000014005a258     atlsd:atltrace.obj
 0003:00001260       ?atlTraceUser4@ATL@@3VCTraceCategory@1@A 000000014005a260     atlsd:atltrace.obj
 0003:00001270       ?g_Allocator@@3VCAtlAllocator@@A 000000014005a270     atlsd:Externs.obj
 0003:000012c8       ?s_trace@CTrace@ATL@@2V12@A 000000014005a2c8     atlsd:Externs.obj
 0003:000012d8       ?_afxInitAppState@@3DA     000000014005a2d8     mfcs100ud:appmodul.obj
 0003:000012dc       __native_startup_state     000000014005a2dc     <common>
 0003:000012f0       __native_startup_lock      000000014005a2f0     <common>
 0003:000012f8       __onexitend                000000014005a2f8     <common>
 0003:00001310       __onexitbegin              000000014005a310     <common>
 0003:00001318       __dyn_tls_init_callback    000000014005a318     <common>
 0005:00000000       __IMPORT_DESCRIPTOR_dbghelp 000000014005e000     Dbghelp:dbghelp.dll
 0005:00000014       __IMPORT_DESCRIPTOR_mfc100ud 000000014005e014     mfc100ud:mfc100ud.dll
 0005:00000028       __IMPORT_DESCRIPTOR_MSVCR100D 000000014005e028     msvcrtd:MSVCR100D.dll
 0005:0000003c       __IMPORT_DESCRIPTOR_KERNEL32 000000014005e03c     kernel32:KERNEL32.dll
 0005:00000050       __IMPORT_DESCRIPTOR_USER32 000000014005e050     user32:USER32.dll
 0005:00000064       __IMPORT_DESCRIPTOR_ADVAPI32 000000014005e064     advapi32:ADVAPI32.dll
 0005:00000078       __IMPORT_DESCRIPTOR_SHELL32 000000014005e078     shell32:SHELL32.dll
 0005:0000008c       __IMPORT_DESCRIPTOR_COMCTL32 000000014005e08c     comctl32:COMCTL32.dll
 0005:000000a0       __IMPORT_DESCRIPTOR_SHLWAPI 000000014005e0a0     shlwapi:SHLWAPI.dll
 0005:000000b4       __IMPORT_DESCRIPTOR_OLEAUT32 000000014005e0b4     oleaut32:OLEAUT32.dll
 0005:000000c8       __IMPORT_DESCRIPTOR_WS2_32 000000014005e0c8     ws2_32:WS2_32.dll
 0005:000000dc       __NULL_IMPORT_DESCRIPTOR   000000014005e0dc     Dbghelp:dbghelp.dll
 0005:000019b8       __imp_OpenThreadToken      000000014005f9b8     advapi32:ADVAPI32.dll
 0005:000019c0       __imp_RegSetValueExW       000000014005f9c0     advapi32:ADVAPI32.dll
 0005:000019c8       __imp_RevertToSelf         000000014005f9c8     advapi32:ADVAPI32.dll
 0005:000019d0       __imp_SetThreadToken       000000014005f9d0     advapi32:ADVAPI32.dll
 0005:000019d8       __imp_RegOpenKeyExW        000000014005f9d8     advapi32:ADVAPI32.dll
 0005:000019e0       __imp_RegDeleteValueW      000000014005f9e0     advapi32:ADVAPI32.dll
 0005:000019e8       __imp_RegCloseKey          000000014005f9e8     advapi32:ADVAPI32.dll
 0005:000019f0       \177ADVAPI32_NULL_THUNK_DATA 000000014005f9f0     advapi32:ADVAPI32.dll
 0005:00001a50       __imp_InitCommonControlsEx 000000014005fa50     comctl32:COMCTL32.dll
 0005:00001a58       \177COMCTL32_NULL_THUNK_DATA 000000014005fa58     comctl32:COMCTL32.dll
 0005:00001ab0       __imp_CreateFileW          000000014005fab0     kernel32:KERNEL32.dll
 0005:00001ab8       __imp_GetCurrentProcessId  000000014005fab8     kernel32:KERNEL32.dll
 0005:00001ac0       __imp_GetCurrentThreadId   000000014005fac0     kernel32:KERNEL32.dll
 0005:00001ac8       __imp_CreateDirectoryW     000000014005fac8     kernel32:KERNEL32.dll
 0005:00001ad0       __imp_GetTempPathW         000000014005fad0     kernel32:KERNEL32.dll
 0005:00001ad8       __imp_OpenFileMappingA     000000014005fad8     kernel32:KERNEL32.dll
 0005:00001ae0       __imp_GetCurrentThread     000000014005fae0     kernel32:KERNEL32.dll
 0005:00001ae8       __imp_CreateFileMappingA   000000014005fae8     kernel32:KERNEL32.dll
 0005:00001af0       __imp_GetSystemInfo        000000014005faf0     kernel32:KERNEL32.dll
 0005:00001af8       __imp_VirtualAlloc         000000014005faf8     kernel32:KERNEL32.dll
 0005:00001b00       __imp_OutputDebugStringA   000000014005fb00     kernel32:KERNEL32.dll
 0005:00001b08       __imp_OpenEventA           000000014005fb08     kernel32:KERNEL32.dll
 0005:00001b10       __imp_SetEvent             000000014005fb10     kernel32:KERNEL32.dll
 0005:00001b18       __imp_LocalFileTimeToFileTime 000000014005fb18     kernel32:KERNEL32.dll
 0005:00001b20       __imp_FileTimeToLocalFileTime 000000014005fb20     kernel32:KERNEL32.dll
 0005:00001b28       __imp_FileTimeToSystemTime 000000014005fb28     kernel32:KERNEL32.dll
 0005:00001b30       __imp_MulDiv               000000014005fb30     kernel32:KERNEL32.dll
 0005:00001b38       __imp_GetLocalTime         000000014005fb38     kernel32:KERNEL32.dll
 0005:00001b40       __imp_GetModuleFileNameW   000000014005fb40     kernel32:KERNEL32.dll
 0005:00001b48       __imp_GetModuleHandleExW   000000014005fb48     kernel32:KERNEL32.dll
 0005:00001b50       __imp_SetErrorMode         000000014005fb50     kernel32:KERNEL32.dll
 0005:00001b58       __imp_GetCommandLineW      000000014005fb58     kernel32:KERNEL32.dll
 0005:00001b60       __imp_SetUnhandledExceptionFilter 000000014005fb60     kernel32:KERNEL32.dll
 0005:00001b68       __imp_GetLastError         000000014005fb68     kernel32:KERNEL32.dll
 0005:00001b70       __imp_CopyFileW            000000014005fb70     kernel32:KERNEL32.dll
 0005:00001b78       __imp_GetCurrentProcess    000000014005fb78     kernel32:KERNEL32.dll
 0005:00001b80       __imp_FindFirstFileW       000000014005fb80     kernel32:KERNEL32.dll
 0005:00001b88       __imp_GlobalAlloc          000000014005fb88     kernel32:KERNEL32.dll
 0005:00001b90       __imp_CloseHandle          000000014005fb90     kernel32:KERNEL32.dll
 0005:00001b98       __imp_UnmapViewOfFile      000000014005fb98     kernel32:KERNEL32.dll
 0005:00001ba0       __imp_MapViewOfFile        000000014005fba0     kernel32:KERNEL32.dll
 0005:00001ba8       __imp_OpenFileMappingW     000000014005fba8     kernel32:KERNEL32.dll
 0005:00001bb0       __imp_GetVersionExW        000000014005fbb0     kernel32:KERNEL32.dll
 0005:00001bb8       __imp_lstrlenW             000000014005fbb8     kernel32:KERNEL32.dll
 0005:00001bc0       __imp_GetVersion           000000014005fbc0     kernel32:KERNEL32.dll
 0005:00001bc8       __imp_EncodePointer        000000014005fbc8     kernel32:KERNEL32.dll
 0005:00001bd0       __imp_GetStartupInfoW      000000014005fbd0     kernel32:KERNEL32.dll
 0005:00001bd8       __imp_DecodePointer        000000014005fbd8     kernel32:KERNEL32.dll
 0005:00001be0       __imp_QueryPerformanceCounter 000000014005fbe0     kernel32:KERNEL32.dll
 0005:00001be8       __imp_GetTickCount         000000014005fbe8     kernel32:KERNEL32.dll
 0005:00001bf0       __imp_GetSystemTimeAsFileTime 000000014005fbf0     kernel32:KERNEL32.dll
 0005:00001bf8       __imp_WideCharToMultiByte  000000014005fbf8     kernel32:KERNEL32.dll
 0005:00001c00       __imp_IsDebuggerPresent    000000014005fc00     kernel32:KERNEL32.dll
 0005:00001c08       __imp_MultiByteToWideChar  000000014005fc08     kernel32:KERNEL32.dll
 0005:00001c10       __imp_RaiseException       000000014005fc10     kernel32:KERNEL32.dll
 0005:00001c18       __imp_lstrlenA             000000014005fc18     kernel32:KERNEL32.dll
 0005:00001c20       __imp_GetProcAddress       000000014005fc20     kernel32:KERNEL32.dll
 0005:00001c28       __imp_LoadLibraryW         000000014005fc28     kernel32:KERNEL32.dll
 0005:00001c30       __imp_TerminateProcess     000000014005fc30     kernel32:KERNEL32.dll
 0005:00001c38       __imp_UnhandledExceptionFilter 000000014005fc38     kernel32:KERNEL32.dll
 0005:00001c40       __imp_RtlVirtualUnwind     000000014005fc40     kernel32:KERNEL32.dll
 0005:00001c48       __imp_FindNextFileW        000000014005fc48     kernel32:KERNEL32.dll
 0005:00001c50       __imp_Sleep                000000014005fc50     kernel32:KERNEL32.dll
 0005:00001c58       __imp_RtlLookupFunctionEntry 000000014005fc58     kernel32:KERNEL32.dll
 0005:00001c60       __imp_RtlCaptureContext    000000014005fc60     kernel32:KERNEL32.dll
 0005:00001c68       __imp_HeapFree             000000014005fc68     kernel32:KERNEL32.dll
 0005:00001c70       __imp_HeapAlloc            000000014005fc70     kernel32:KERNEL32.dll
 0005:00001c78       __imp_GetProcessHeap       000000014005fc78     kernel32:KERNEL32.dll
 0005:00001c80       __imp_VirtualQuery         000000014005fc80     kernel32:KERNEL32.dll
 0005:00001c88       __imp_GetModuleHandleW     000000014005fc88     kernel32:KERNEL32.dll
 0005:00001c90       __imp_OutputDebugStringW   000000014005fc90     kernel32:KERNEL32.dll
 0005:00001c98       __imp_GlobalFree           000000014005fc98     kernel32:KERNEL32.dll
 0005:00001ca0       __imp_GlobalLock           000000014005fca0     kernel32:KERNEL32.dll
 0005:00001ca8       __imp_GlobalUnlock         000000014005fca8     kernel32:KERNEL32.dll
 0005:00001cb0       __imp_DeleteFileW          000000014005fcb0     kernel32:KERNEL32.dll
 0005:00001cb8       __imp_FreeLibrary          000000014005fcb8     kernel32:KERNEL32.dll
 0005:00001cc0       \177KERNEL32_NULL_THUNK_DATA 000000014005fcc0     kernel32:KERNEL32.dll
 0005:00001d80       __imp_calloc               000000014005fd80     msvcrtd:MSVCR100D.dll
 0005:00001d88       __imp_wcscpy               000000014005fd88     msvcrtd:MSVCR100D.dll
 0005:00001d90       __imp_wcslen               000000014005fd90     msvcrtd:MSVCR100D.dll
 0005:00001d98       __imp_wcscpy_s             000000014005fd98     msvcrtd:MSVCR100D.dll
 0005:00001da0       __imp_memset               000000014005fda0     msvcrtd:MSVCR100D.dll
 0005:00001da8       __imp__vsnwprintf          000000014005fda8     msvcrtd:MSVCR100D.dll
 0005:00001db0       __imp_fclose               000000014005fdb0     msvcrtd:MSVCR100D.dll
 0005:00001db8       __imp_fprintf              000000014005fdb8     msvcrtd:MSVCR100D.dll
 0005:00001dc0       __imp_fopen_s              000000014005fdc0     msvcrtd:MSVCR100D.dll
 0005:00001dc8       __imp_wcsrchr              000000014005fdc8     msvcrtd:MSVCR100D.dll
 0005:00001dd0       __imp_wcscmp               000000014005fdd0     msvcrtd:MSVCR100D.dll
 0005:00001dd8       __imp_wcscat_s             000000014005fdd8     msvcrtd:MSVCR100D.dll
 0005:00001de0       __imp_wcsncpy_s            000000014005fde0     msvcrtd:MSVCR100D.dll
 0005:00001de8       __imp_memcpy_s             000000014005fde8     msvcrtd:MSVCR100D.dll
 0005:00001df0       __imp__configthreadlocale  000000014005fdf0     msvcrtd:MSVCR100D.dll
 0005:00001df8       __imp___setusermatherr     000000014005fdf8     msvcrtd:MSVCR100D.dll
 0005:00001e00       __imp__commode             000000014005fe00     msvcrtd:MSVCR100D.dll
 0005:00001e08       __imp__fmode               000000014005fe08     msvcrtd:MSVCR100D.dll
 0005:00001e10       __imp___set_app_type       000000014005fe10     msvcrtd:MSVCR100D.dll
 0005:00001e18       __imp__amsg_exit           000000014005fe18     msvcrtd:MSVCR100D.dll
 0005:00001e20       __imp___wgetmainargs       000000014005fe20     msvcrtd:MSVCR100D.dll
 0005:00001e28       __imp___C_specific_handler 000000014005fe28     msvcrtd:MSVCR100D.dll
 0005:00001e30       __imp__XcptFilter          000000014005fe30     msvcrtd:MSVCR100D.dll
 0005:00001e38       __imp__exit                000000014005fe38     msvcrtd:MSVCR100D.dll
 0005:00001e40       __imp__cexit               000000014005fe40     msvcrtd:MSVCR100D.dll
 0005:00001e48       __imp_exit                 000000014005fe48     msvcrtd:MSVCR100D.dll
 0005:00001e50       __imp__wcmdln              000000014005fe50     msvcrtd:MSVCR100D.dll
 0005:00001e58       __imp__CrtSetCheckCount    000000014005fe58     msvcrtd:MSVCR100D.dll
 0005:00001e60       __imp__CrtDbgReportW       000000014005fe60     msvcrtd:MSVCR100D.dll
 0005:00001e68       __imp__initterm            000000014005fe68     msvcrtd:MSVCR100D.dll
 0005:00001e70       __imp__initterm_e          000000014005fe70     msvcrtd:MSVCR100D.dll
 0005:00001e78       __imp__CRT_RTC_INITW       000000014005fe78     msvcrtd:MSVCR100D.dll
 0005:00001e80       __imp__unlock              000000014005fe80     msvcrtd:MSVCR100D.dll
 0005:00001e88       __imp___dllonexit          000000014005fe88     msvcrtd:MSVCR100D.dll
 0005:00001e90       __imp__lock                000000014005fe90     msvcrtd:MSVCR100D.dll
 0005:00001e98       __imp__onexit              000000014005fe98     msvcrtd:MSVCR100D.dll
 0005:00001ea0       __imp_?terminate@@YAXXZ    000000014005fea0     msvcrtd:MSVCR100D.dll
 0005:00001ea8       __imp_?_type_info_dtor_internal_method@type_info@@QEAAXXZ 000000014005fea8     msvcrtd:MSVCR100D.dll
 0005:00001eb0       __imp___crt_debugger_hook  000000014005feb0     msvcrtd:MSVCR100D.dll
 0005:00001eb8       __imp__wmakepath_s         000000014005feb8     msvcrtd:MSVCR100D.dll
 0005:00001ec0       __imp__wsplitpath_s        000000014005fec0     msvcrtd:MSVCR100D.dll
 0005:00001ec8       __imp__time64              000000014005fec8     msvcrtd:MSVCR100D.dll
 0005:00001ed0       __imp_ceil                 000000014005fed0     msvcrtd:MSVCR100D.dll
 0005:00001ed8       __imp_floor                000000014005fed8     msvcrtd:MSVCR100D.dll
 0005:00001ee0       __imp__mktime64            000000014005fee0     msvcrtd:MSVCR100D.dll
 0005:00001ee8       __imp__gmtime64_s          000000014005fee8     msvcrtd:MSVCR100D.dll
 0005:00001ef0       __imp__localtime64_s       000000014005fef0     msvcrtd:MSVCR100D.dll
 0005:00001ef8       __imp__snprintf_s          000000014005fef8     msvcrtd:MSVCR100D.dll
 0005:00001f00       __imp__errno               000000014005ff00     msvcrtd:MSVCR100D.dll
 0005:00001f08       __imp__CxxThrowException   000000014005ff08     msvcrtd:MSVCR100D.dll
 0005:00001f10       __imp__CrtDbgReport        000000014005ff10     msvcrtd:MSVCR100D.dll
 0005:00001f18       __imp_free                 000000014005ff18     msvcrtd:MSVCR100D.dll
 0005:00001f20       __imp_strcpy               000000014005ff20     msvcrtd:MSVCR100D.dll
 0005:00001f28       __imp__vsnprintf_s         000000014005ff28     msvcrtd:MSVCR100D.dll
 0005:00001f30       __imp__vsnwprintf_s        000000014005ff30     msvcrtd:MSVCR100D.dll
 0005:00001f38       __imp__snwprintf_s         000000014005ff38     msvcrtd:MSVCR100D.dll
 0005:00001f40       __imp_strcpy_s             000000014005ff40     msvcrtd:MSVCR100D.dll
 0005:00001f48       __imp___CxxFrameHandler3   000000014005ff48     msvcrtd:MSVCR100D.dll
 0005:00001f50       __imp__recalloc            000000014005ff50     msvcrtd:MSVCR100D.dll
 0005:00001f58       __imp_memcmp               000000014005ff58     msvcrtd:MSVCR100D.dll
 0005:00001f60       __imp__wcsicmp             000000014005ff60     msvcrtd:MSVCR100D.dll
 0005:00001f68       __imp_memmove_s            000000014005ff68     msvcrtd:MSVCR100D.dll
 0005:00001f70       __imp_strlen               000000014005ff70     msvcrtd:MSVCR100D.dll
 0005:00001f78       \177MSVCR100D_NULL_THUNK_DATA 000000014005ff78     msvcrtd:MSVCR100D.dll
 0005:00002028       __imp_SystemTimeToVariantTime 0000000140060028     oleaut32:OLEAUT32.dll
 0005:00002030       __imp_VarDateFromUdate     0000000140060030     oleaut32:OLEAUT32.dll
 0005:00002038       __imp_VariantChangeType    0000000140060038     oleaut32:OLEAUT32.dll
 0005:00002040       __imp_VarUdateFromDate     0000000140060040     oleaut32:OLEAUT32.dll
 0005:00002048       __imp_VariantTimeToSystemTime 0000000140060048     oleaut32:OLEAUT32.dll
 0005:00002050       __imp_DosDateTimeToVariantTime 0000000140060050     oleaut32:OLEAUT32.dll
 0005:00002058       __imp_SysFreeString        0000000140060058     oleaut32:OLEAUT32.dll
 0005:00002060       \177OLEAUT32_NULL_THUNK_DATA 0000000140060060     oleaut32:OLEAUT32.dll
 0005:000020c0       __imp_ShellExecuteW        00000001400600c0     shell32:SHELL32.dll
 0005:000020c8       __imp_SHGetPathFromIDListW 00000001400600c8     shell32:SHELL32.dll
 0005:000020d0       __imp_SHChangeNotifyRegister 00000001400600d0     shell32:SHELL32.dll
 0005:000020d8       __imp_Shell_NotifyIconW    00000001400600d8     shell32:SHELL32.dll
 0005:000020e0       __imp_SHAppBarMessage      00000001400600e0     shell32:SHELL32.dll
 0005:000020e8       __imp_DragQueryFileW       00000001400600e8     shell32:SHELL32.dll
 0005:000020f0       \177SHELL32_NULL_THUNK_DATA 00000001400600f0     shell32:SHELL32.dll
 0005:00002150       __imp_PathIsDirectoryW     0000000140060150     shlwapi:SHLWAPI.dll
 0005:00002158       \177SHLWAPI_NULL_THUNK_DATA 0000000140060158     shlwapi:SHLWAPI.dll
 0005:000021b0       __imp_EnumChildWindows     00000001400601b0     user32:USER32.dll
 0005:000021b8       __imp_SubtractRect         00000001400601b8     user32:USER32.dll
 0005:000021c0       __imp_UnionRect            00000001400601c0     user32:USER32.dll
 0005:000021c8       __imp_IntersectRect        00000001400601c8     user32:USER32.dll
 0005:000021d0       __imp_OffsetRect           00000001400601d0     user32:USER32.dll
 0005:000021d8       __imp_InflateRect          00000001400601d8     user32:USER32.dll
 0005:000021e0       __imp_SystemParametersInfoW 00000001400601e0     user32:USER32.dll
 0005:000021e8       __imp_GetClassNameW        00000001400601e8     user32:USER32.dll
 0005:000021f0       __imp_EqualRect            00000001400601f0     user32:USER32.dll
 0005:000021f8       __imp_SetRectEmpty         00000001400601f8     user32:USER32.dll
 0005:00002200       __imp_CopyRect             0000000140060200     user32:USER32.dll
 0005:00002208       __imp_SetRect              0000000140060208     user32:USER32.dll
 0005:00002210       __imp_PtInRect             0000000140060210     user32:USER32.dll
 0005:00002218       __imp_IsRectEmpty          0000000140060218     user32:USER32.dll
 0005:00002220       __imp_GetWindowRect        0000000140060220     user32:USER32.dll
 0005:00002228       __imp_RegisterWindowMessageW 0000000140060228     user32:USER32.dll
 0005:00002230       __imp_PeekMessageW         0000000140060230     user32:USER32.dll
 0005:00002238       __imp_SendMessageW         0000000140060238     user32:USER32.dll
 0005:00002240       __imp_IsWindow             0000000140060240     user32:USER32.dll
 0005:00002248       __imp_MessageBoxW          0000000140060248     user32:USER32.dll
 0005:00002250       __imp_GetSystemMetrics     0000000140060250     user32:USER32.dll
 0005:00002258       __imp_CloseClipboard       0000000140060258     user32:USER32.dll
 0005:00002260       __imp_GetClipboardData     0000000140060260     user32:USER32.dll
 0005:00002268       __imp_IsClipboardFormatAvailable 0000000140060268     user32:USER32.dll
 0005:00002270       __imp_FindWindowW          0000000140060270     user32:USER32.dll
 0005:00002278       __imp_DestroyIcon          0000000140060278     user32:USER32.dll
 0005:00002280       __imp_LoadImageW           0000000140060280     user32:USER32.dll
 0005:00002288       __imp_LoadIconW            0000000140060288     user32:USER32.dll
 0005:00002290       __imp_SetMenuDefaultItem   0000000140060290     user32:USER32.dll
 0005:00002298       __imp_TrackPopupMenu       0000000140060298     user32:USER32.dll
 0005:000022a0       __imp_GetCursorPos         00000001400602a0     user32:USER32.dll
 0005:000022a8       __imp_DrawAnimatedRects    00000001400602a8     user32:USER32.dll
 0005:000022b0       \177USER32_NULL_THUNK_DATA 00000001400602b0     user32:USER32.dll
 0005:00002338       __imp_WSACleanup           0000000140060338     ws2_32:WS2_32.dll
 0005:00002340       __imp_WSAStartup           0000000140060340     ws2_32:WS2_32.dll
 0005:00002348       __imp_socket               0000000140060348     ws2_32:WS2_32.dll
 0005:00002350       __imp_inet_addr            0000000140060350     ws2_32:WS2_32.dll
 0005:00002358       __imp_htons                0000000140060358     ws2_32:WS2_32.dll
 0005:00002360       __imp_connect              0000000140060360     ws2_32:WS2_32.dll
 0005:00002368       __imp_send                 0000000140060368     ws2_32:WS2_32.dll
 0005:00002370       __imp_WSAGetLastError      0000000140060370     ws2_32:WS2_32.dll
 0005:00002378       __imp_closesocket          0000000140060378     ws2_32:WS2_32.dll
 0005:00002380       __imp_htonl                0000000140060380     ws2_32:WS2_32.dll
 0005:00002388       __imp_bind                 0000000140060388     ws2_32:WS2_32.dll
 0005:00002390       \177WS2_32_NULL_THUNK_DATA 0000000140060390     ws2_32:WS2_32.dll
 0005:000023a0       __imp_MiniDumpWriteDump    00000001400603a0     Dbghelp:dbghelp.dll
 0005:000023a8       \177dbghelp_NULL_THUNK_DATA 00000001400603a8     Dbghelp:dbghelp.dll
 0005:00002400       __imp_?PreTranslateMessage@CDialogEx@@UEAAHPEAUtagMSG@@@Z 0000000140060400     mfc100ud:mfc100ud.dll
 0005:00002408       __imp_?OnOK@CDialog@@MEAAXXZ 0000000140060408     mfc100ud:mfc100ud.dll
 0005:00002410       __imp_?OnCancel@CDialog@@MEAAXXZ 0000000140060410     mfc100ud:mfc100ud.dll
 0005:00002418       __imp_??1CDialog@@UEAA@XZ  0000000140060418     mfc100ud:mfc100ud.dll
 0005:00002420       __imp_??1CBrush@@UEAA@XZ   0000000140060420     mfc100ud:mfc100ud.dll
 0005:00002428       __imp_??1CDialogImpl@@MEAA@XZ 0000000140060428     mfc100ud:mfc100ud.dll
 0005:00002430       __imp_?GetThisMessageMap@CDialogEx@@KAPEBUAFX_MSGMAP@@XZ 0000000140060430     mfc100ud:mfc100ud.dll
 0005:00002438       __imp_?GetThisClass@CListCtrl@@SAPEAUCRuntimeClass@@XZ 0000000140060438     mfc100ud:mfc100ud.dll
 0005:00002440       __imp_??1CListCtrl@@UEAA@XZ 0000000140060440     mfc100ud:mfc100ud.dll
 0005:00002448       __imp_??0CListCtrl@@QEAA@XZ 0000000140060448     mfc100ud:mfc100ud.dll
 0005:00002450       __imp_?OnChildNotify@CListCtrl@@MEAAHI_K_JPEA_J@Z 0000000140060450     mfc100ud:mfc100ud.dll
 0005:00002458       __imp_?DrawItem@CListCtrl@@UEAAXPEAUtagDRAWITEMSTRUCT@@@Z 0000000140060458     mfc100ud:mfc100ud.dll
 0005:00002460       __imp_?GetThisMessageMap@CListCtrl@@KAPEBUAFX_MSGMAP@@XZ 0000000140060460     mfc100ud:mfc100ud.dll
 0005:00002468       __imp_?AfxMessageBox@@YAHPEB_WII@Z 0000000140060468     mfc100ud:mfc100ud.dll
 0005:00002470       __imp_?GetThisClass@CObject@@SAPEAUCRuntimeClass@@XZ 0000000140060470     mfc100ud:mfc100ud.dll
 0005:00002478       __imp_??0CObject@@IEAA@XZ  0000000140060478     mfc100ud:mfc100ud.dll
 0005:00002480       __imp_?AssertValid@CObject@@UEBAXXZ 0000000140060480     mfc100ud:mfc100ud.dll
 0005:00002488       __imp_?Dump@CObject@@UEBAXAEAVCDumpContext@@@Z 0000000140060488     mfc100ud:mfc100ud.dll
 0005:00002490       __imp_??1CObject@@UEAA@XZ  0000000140060490     mfc100ud:mfc100ud.dll
 0005:00002498       __imp_??0COleDropTarget@@QEAA@XZ 0000000140060498     mfc100ud:mfc100ud.dll
 0005:000024a0       __imp_?GetRuntimeClass@CCmdTarget@@UEBAPEAUCRuntimeClass@@XZ 00000001400604a0     mfc100ud:mfc100ud.dll
 0005:000024a8       __imp_?AssertValid@COleDropTarget@@UEBAXXZ 00000001400604a8     mfc100ud:mfc100ud.dll
 0005:000024b0       __imp_?Dump@COleDropTarget@@UEBAXAEAVCDumpContext@@@Z 00000001400604b0     mfc100ud:mfc100ud.dll
 0005:000024b8       __imp_?OnFinalRelease@CCmdTarget@@UEAAXXZ 00000001400604b8     mfc100ud:mfc100ud.dll
 0005:000024c0       __imp_?GetMessageMap@CCmdTarget@@MEBAPEBUAFX_MSGMAP@@XZ 00000001400604c0     mfc100ud:mfc100ud.dll
 0005:000024c8       __imp_?GetInterfaceMap@COleDropTarget@@MEBAPEBUAFX_INTERFACEMAP@@XZ 00000001400604c8     mfc100ud:mfc100ud.dll
 0005:000024d0       __imp_?Revoke@COleDropTarget@@UEAAXXZ 00000001400604d0     mfc100ud:mfc100ud.dll
 0005:000024d8       __imp_?OnDragScroll@COleDropTarget@@UEAAKPEAVCWnd@@KVCPoint@@@Z 00000001400604d8     mfc100ud:mfc100ud.dll
 0005:000024e0       __imp_??1COleDropTarget@@UEAA@XZ 00000001400604e0     mfc100ud:mfc100ud.dll
 0005:000024e8       __imp_?OnDragEnter@COleDropTarget@@UEAAKPEAVCWnd@@PEAVCOleDataObject@@KVCPoint@@@Z 00000001400604e8     mfc100ud:mfc100ud.dll
 0005:000024f0       __imp_?GetThisClass@CView@@SAPEAUCRuntimeClass@@XZ 00000001400604f0     mfc100ud:mfc100ud.dll
 0005:000024f8       __imp_?AfxAssertValidObject@@YAXPEBVCObject@@PEBDH@Z 00000001400604f8     mfc100ud:mfc100ud.dll
 0005:00002500       __imp_?OnDragOver@COleDropTarget@@UEAAKPEAVCWnd@@PEAVCOleDataObject@@KVCPoint@@@Z 0000000140060500     mfc100ud:mfc100ud.dll
 0005:00002508       __imp_?OnDrop@COleDropTarget@@UEAAHPEAVCWnd@@PEAVCOleDataObject@@KVCPoint@@@Z 0000000140060508     mfc100ud:mfc100ud.dll
 0005:00002510       __imp_?OnDropEx@COleDropTarget@@UEAAKPEAVCWnd@@PEAVCOleDataObject@@KKVCPoint@@@Z 0000000140060510     mfc100ud:mfc100ud.dll
 0005:00002518       __imp_?OnDragLeave@COleDropTarget@@UEAAXPEAVCWnd@@@Z 0000000140060518     mfc100ud:mfc100ud.dll
 0005:00002520       __imp_?GetThisMessageMap@CWinApp@@KAPEBUAFX_MSGMAP@@XZ 0000000140060520     mfc100ud:mfc100ud.dll
 0005:00002528       __imp_?OnHelp@CWinApp@@IEAAXXZ 0000000140060528     mfc100ud:mfc100ud.dll
 0005:00002530       __imp_?GetBuffer@?$CSimpleStringT@_W$00@ATL@@QEAAPEA_WXZ 0000000140060530     mfc100ud:mfc100ud.dll
 0005:00002538       __imp_?AppendFormat@?$CStringT@_WV?$StrTraitMFC_DLL@_WV?$ChTraitsCRT@_W@ATL@@@@@ATL@@QEAAXPEB_WZZ 0000000140060538     mfc100ud:mfc100ud.dll
 0005:00002540       __imp_??0CWinApp@@QEAA@PEB_W@Z 0000000140060540     mfc100ud:mfc100ud.dll
 0005:00002548       __imp_?GetRuntimeClass@CWinApp@@UEBAPEAUCRuntimeClass@@XZ 0000000140060548     mfc100ud:mfc100ud.dll
 0005:00002550       __imp_?AssertValid@CWinApp@@UEBAXXZ 0000000140060550     mfc100ud:mfc100ud.dll
 0005:00002558       __imp_?Dump@CWinApp@@UEBAXAEAVCDumpContext@@@Z 0000000140060558     mfc100ud:mfc100ud.dll
 0005:00002560       __imp_?GetInterfaceMap@CCmdTarget@@MEBAPEBUAFX_INTERFACEMAP@@XZ 0000000140060560     mfc100ud:mfc100ud.dll
 0005:00002568       __imp_?Run@CWinApp@@UEAAHXZ 0000000140060568     mfc100ud:mfc100ud.dll
 0005:00002570       __imp_?PreTranslateMessage@CWinThread@@UEAAHPEAUtagMSG@@@Z 0000000140060570     mfc100ud:mfc100ud.dll
 0005:00002578       __imp_?PumpMessage@CWinThread@@UEAAHXZ 0000000140060578     mfc100ud:mfc100ud.dll
 0005:00002580       __imp_?OnIdle@CWinApp@@UEAAHJ@Z 0000000140060580     mfc100ud:mfc100ud.dll
 0005:00002588       __imp_?IsIdleMessage@CWinThread@@UEAAHPEAUtagMSG@@@Z 0000000140060588     mfc100ud:mfc100ud.dll
 0005:00002590       __imp_?ProcessWndProcException@CWinApp@@UEAA_JPEAVCException@@PEBUtagMSG@@@Z 0000000140060590     mfc100ud:mfc100ud.dll
 0005:00002598       __imp_?ProcessMessageFilter@CWinThread@@UEAAHHPEAUtagMSG@@@Z 0000000140060598     mfc100ud:mfc100ud.dll
 0005:000025a0       __imp_?GetMainWnd@CWinThread@@UEAAPEAVCWnd@@XZ 00000001400605a0     mfc100ud:mfc100ud.dll
 0005:000025a8       __imp_?Delete@CWinThread@@UEAAXXZ 00000001400605a8     mfc100ud:mfc100ud.dll
 0005:000025b0       __imp_?GetProfileIntW@CWinApp@@UEAAIPEB_W0H@Z 00000001400605b0     mfc100ud:mfc100ud.dll
 0005:000025b8       __imp_?WriteProfileInt@CWinApp@@UEAAHPEB_W0H@Z 00000001400605b8     mfc100ud:mfc100ud.dll
 0005:000025c0       __imp_?GetProfileStringW@CWinApp@@UEAA?AV?$CStringT@_WV?$StrTraitMFC_DLL@_WV?$ChTraitsCRT@_W@ATL@@@@@ATL@@PEB_W00@Z 00000001400605c0     mfc100ud:mfc100ud.dll
 0005:000025c8       __imp_?WriteProfileStringW@CWinApp@@UEAAHPEB_W00@Z 00000001400605c8     mfc100ud:mfc100ud.dll
 0005:000025d0       __imp_?GetProfileBinary@CWinApp@@UEAAHPEB_W0PEAPEAEPEAI@Z 00000001400605d0     mfc100ud:mfc100ud.dll
 0005:000025d8       __imp_?WriteProfileBinary@CWinApp@@UEAAHPEB_W0PEAEI@Z 00000001400605d8     mfc100ud:mfc100ud.dll
 0005:000025e0       __imp_?InitLibId@CWinApp@@UEAAXXZ 00000001400605e0     mfc100ud:mfc100ud.dll
 0005:000025e8       __imp_?Register@CWinApp@@UEAAHXZ 00000001400605e8     mfc100ud:mfc100ud.dll
 0005:000025f0       __imp_?Unregister@CWinApp@@UEAAHXZ 00000001400605f0     mfc100ud:mfc100ud.dll
 0005:000025f8       __imp_?OpenDocumentFile@CWinApp@@UEAAPEAVCDocument@@PEB_WH@Z 00000001400605f8     mfc100ud:mfc100ud.dll
 0005:00002600       __imp_?OpenDocumentFile@CWinApp@@UEAAPEAVCDocument@@PEB_W@Z 0000000140060600     mfc100ud:mfc100ud.dll
 0005:00002608       __imp_?AddToRecentFileList@CWinApp@@UEAAXPEB_W@Z 0000000140060608     mfc100ud:mfc100ud.dll
 0005:00002610       __imp_?InitApplication@CWinApp@@UEAAHXZ 0000000140060610     mfc100ud:mfc100ud.dll
 0005:00002618       __imp_?SaveAllModified@CWinApp@@UEAAHXZ 0000000140060618     mfc100ud:mfc100ud.dll
 0005:00002620       __imp_?DoMessageBox@CWinApp@@UEAAHPEB_WII@Z 0000000140060620     mfc100ud:mfc100ud.dll
 0005:00002628       __imp_?DoWaitCursor@CWinApp@@UEAAXH@Z 0000000140060628     mfc100ud:mfc100ud.dll
 0005:00002630       __imp_?OnDDECommand@CWinApp@@UEAAHPEA_W@Z 0000000140060630     mfc100ud:mfc100ud.dll
 0005:00002638       __imp_?WinHelpW@CWinApp@@UEAAX_KI@Z 0000000140060638     mfc100ud:mfc100ud.dll
 0005:00002640       __imp_?HtmlHelpW@CWinApp@@UEAAX_KI@Z 0000000140060640     mfc100ud:mfc100ud.dll
 0005:00002648       __imp_?WinHelpInternal@CWinApp@@UEAAX_KI@Z 0000000140060648     mfc100ud:mfc100ud.dll
 0005:00002650       __imp_?RegisterWithRestartManager@CWinApp@@UEAAJPEB_WKP6AKPEAX@Z1KK@Z 0000000140060650     mfc100ud:mfc100ud.dll
 0005:00002658       __imp_?RegisterWithRestartManager@CWinApp@@UEAAJHAEBV?$CStringT@_WV?$StrTraitMFC_DLL@_WV?$ChTraitsCRT@_W@ATL@@@@@ATL@@@Z 0000000140060658     mfc100ud:mfc100ud.dll
 0005:00002660       __imp_?ApplicationRecoveryCallback@CWinApp@@UEAAKPEAX@Z 0000000140060660     mfc100ud:mfc100ud.dll
 0005:00002668       __imp_?GetDataRecoveryHandler@CWinApp@@UEAAPEAVCDataRecoveryHandler@@XZ 0000000140060668     mfc100ud:mfc100ud.dll
 0005:00002670       __imp_?IsTaskbarInteractionEnabled@CWinApp@@UEAAHXZ 0000000140060670     mfc100ud:mfc100ud.dll
 0005:00002678       __imp_?RestartInstance@CWinApp@@UEAAHXZ 0000000140060678     mfc100ud:mfc100ud.dll
 0005:00002680       __imp_?LoadAppLangResourceDLL@CWinApp@@UEAAPEAUHINSTANCE__@@XZ 0000000140060680     mfc100ud:mfc100ud.dll
 0005:00002688       __imp_?LoadSysPolicies@CWinApp@@UEAAHXZ 0000000140060688     mfc100ud:mfc100ud.dll
 0005:00002690       __imp_??1CWinApp@@UEAA@XZ  0000000140060690     mfc100ud:mfc100ud.dll
 0005:00002698       __imp_??3CObject@@SAXPEAXPEBDH@Z 0000000140060698     mfc100ud:mfc100ud.dll
 0005:000026a0       __imp_?SetRegistryKey@CWinApp@@IEAAXPEB_W@Z 00000001400606a0     mfc100ud:mfc100ud.dll
 0005:000026a8       __imp_?AfxOleInit@@YAHXZ   00000001400606a8     mfc100ud:mfc100ud.dll
 0005:000026b0       __imp_??0CShellManager@@QEAA@XZ 00000001400606b0     mfc100ud:mfc100ud.dll
 0005:000026b8       __imp_??2CObject@@SAPEAX_KPEBDH@Z 00000001400606b8     mfc100ud:mfc100ud.dll
 0005:000026c0       __imp_?AfxEnableControlContainer@@YAXPEAVCOccManager@@@Z 00000001400606c0     mfc100ud:mfc100ud.dll
 0005:000026c8       __imp_?InitInstance@CWinApp@@UEAAHXZ 00000001400606c8     mfc100ud:mfc100ud.dll
 0005:000026d0       __imp_?ExitInstance@CWinApp@@UEAAHXZ 00000001400606d0     mfc100ud:mfc100ud.dll
 0005:000026d8       __imp_?OnCommand@CDialogEx@@MEAAH_K_J@Z 00000001400606d8     mfc100ud:mfc100ud.dll
 0005:000026e0       __imp_?LoadIconW@CWinApp@@QEBAPEAUHICON__@@I@Z 00000001400606e0     mfc100ud:mfc100ud.dll
 0005:000026e8       __imp_?AfxGetApp@@YAPEAVCWinApp@@XZ 00000001400606e8     mfc100ud:mfc100ud.dll
 0005:000026f0       __imp_??0?$CStringT@_WV?$StrTraitMFC_DLL@_WV?$ChTraitsCRT@_W@ATL@@@@@ATL@@QEAA@PEB_W@Z 00000001400606f0     mfc100ud:mfc100ud.dll
 0005:000026f8       __imp_??0CDialog@@QEAA@IPEAVCWnd@@@Z 00000001400606f8     mfc100ud:mfc100ud.dll
 0005:00002700       __imp_?GetRuntimeClass@CDialog@@UEBAPEAUCRuntimeClass@@XZ 0000000140060700     mfc100ud:mfc100ud.dll
 0005:00002708       __imp_?PreTranslateMessage@CDialog@@UEAAHPEAUtagMSG@@@Z 0000000140060708     mfc100ud:mfc100ud.dll
 0005:00002710       __imp_?DDX_Control@@YAXPEAVCDataExchange@@HAEAVCWnd@@@Z 0000000140060710     mfc100ud:mfc100ud.dll
 0005:00002718       __imp_?GetThisMessageMap@CDialog@@KAPEBUAFX_MSGMAP@@XZ 0000000140060718     mfc100ud:mfc100ud.dll
 0005:00002720       __imp_?SetIcon@CWnd@@QEAAPEAUHICON__@@PEAU2@H@Z 0000000140060720     mfc100ud:mfc100ud.dll
 0005:00002728       __imp_?AppendMenuW@CMenu@@QEAAHI_KPEB_W@Z 0000000140060728     mfc100ud:mfc100ud.dll
 0005:00002730       __imp_?IsEmpty@?$CSimpleStringT@_W$00@ATL@@QEBA_NXZ 0000000140060730     mfc100ud:mfc100ud.dll
 0005:00002738       __imp_?GetSystemMenu@CWnd@@QEBAPEAVCMenu@@H@Z 0000000140060738     mfc100ud:mfc100ud.dll
 0005:00002740       __imp_?OnSysCommand@CWnd@@IEAAXI_J@Z 0000000140060740     mfc100ud:mfc100ud.dll
 0005:00002748       __imp_?OnPaint@CDialog@@IEAAXXZ 0000000140060748     mfc100ud:mfc100ud.dll
 0005:00002750       __imp_??1CPaintDC@@UEAA@XZ 0000000140060750     mfc100ud:mfc100ud.dll
 0005:00002758       __imp_?DrawIcon@CDC@@QEAAHHHPEAUHICON__@@@Z 0000000140060758     mfc100ud:mfc100ud.dll
 0005:00002760       __imp_?GetClientRect@CWnd@@QEBAXPEAUtagRECT@@@Z 0000000140060760     mfc100ud:mfc100ud.dll
 0005:00002768       __imp_?SendMessageW@CWnd@@QEBA_JI_K_J@Z 0000000140060768     mfc100ud:mfc100ud.dll
 0005:00002770       __imp_?GetSafeHdc@CDC@@QEBAPEAUHDC__@@XZ 0000000140060770     mfc100ud:mfc100ud.dll
 0005:00002778       __imp_??0CPaintDC@@QEAA@PEAVCWnd@@@Z 0000000140060778     mfc100ud:mfc100ud.dll
 0005:00002780       __imp_?IsIconic@CWnd@@QEBAHXZ 0000000140060780     mfc100ud:mfc100ud.dll
 0005:00002788       __imp_??1CClientDC@@UEAA@XZ 0000000140060788     mfc100ud:mfc100ud.dll
 0005:00002790       __imp_??1CDC@@UEAA@XZ      0000000140060790     mfc100ud:mfc100ud.dll
 0005:00002798       __imp_?BitBlt@CDC@@QEAAHHHHHPEAV1@HHK@Z 0000000140060798     mfc100ud:mfc100ud.dll
 0005:000027a0       __imp_?SelectObject@CDC@@QEAAPEAVCBitmap@@PEAV2@@Z 00000001400607a0     mfc100ud:mfc100ud.dll
 0005:000027a8       __imp_?CreateCompatibleDC@CDC@@QEAAHPEAV1@@Z 00000001400607a8     mfc100ud:mfc100ud.dll
 0005:000027b0       __imp_??0CDC@@QEAA@XZ      00000001400607b0     mfc100ud:mfc100ud.dll
 0005:000027b8       __imp_??0CClientDC@@QEAA@PEAVCWnd@@@Z 00000001400607b8     mfc100ud:mfc100ud.dll
 0005:000027c0       __imp_?FromHandle@CBitmap@@SAPEAV1@PEAUHBITMAP__@@@Z 00000001400607c0     mfc100ud:mfc100ud.dll
 0005:000027c8       __imp_?OpenClipboard@CWnd@@QEAAHXZ 00000001400607c8     mfc100ud:mfc100ud.dll
 0005:000027d0       __imp_?OnClipboardUpdate@CWnd@@IEAAXXZ 00000001400607d0     mfc100ud:mfc100ud.dll
 0005:000027d8       __imp_?MoveWindow@CWnd@@QEAAXHHHHH@Z 00000001400607d8     mfc100ud:mfc100ud.dll
 0005:000027e0       __imp_?ShowWindow@CWnd@@QEAAHH@Z 00000001400607e0     mfc100ud:mfc100ud.dll
 0005:000027e8       __imp_?GetWindowRect@CWnd@@QEBAXPEAUtagRECT@@@Z 00000001400607e8     mfc100ud:mfc100ud.dll
 0005:000027f0       __imp_?FromHandle@CWnd@@SAPEAV1@PEAUHWND__@@@Z 00000001400607f0     mfc100ud:mfc100ud.dll
 0005:000027f8       __imp_?SetTimer@CWnd@@QEAA_K_KIP6AXPEAUHWND__@@I0K@Z@Z 00000001400607f8     mfc100ud:mfc100ud.dll
 0005:00002800       __imp_?OnTimer@CWnd@@IEAAX_K@Z 0000000140060800     mfc100ud:mfc100ud.dll
 0005:00002808       __imp_?MoveWindow@CWnd@@QEAAXPEBUtagRECT@@H@Z 0000000140060808     mfc100ud:mfc100ud.dll
 0005:00002810       __imp_?OnDestroy@CWnd@@IEAAXXZ 0000000140060810     mfc100ud:mfc100ud.dll
 0005:00002818       __imp_?OnDropFiles@CWnd@@IEAAXPEAUHDROP__@@@Z 0000000140060818     mfc100ud:mfc100ud.dll
 0005:00002820       __imp_?IsWindowVisible@CWnd@@QEBAHXZ 0000000140060820     mfc100ud:mfc100ud.dll
 0005:00002828       __imp_?OnCopyData@CWnd@@IEAAHPEAV1@PEAUtagCOPYDATASTRUCT@@@Z 0000000140060828     mfc100ud:mfc100ud.dll
 0005:00002830       __imp_??0CWnd@@QEAA@XZ     0000000140060830     mfc100ud:mfc100ud.dll
 0005:00002838       __imp_?GetRuntimeClass@CLinkCtrl@@UEBAPEAUCRuntimeClass@@XZ 0000000140060838     mfc100ud:mfc100ud.dll
 0005:00002840       __imp_?GetMessageMap@CWnd@@MEBAPEBUAFX_MSGMAP@@XZ 0000000140060840     mfc100ud:mfc100ud.dll
 0005:00002848       __imp_?Create@CLinkCtrl@@UEAAHPEB_WKAEBUtagRECT@@PEAVCWnd@@I@Z 0000000140060848     mfc100ud:mfc100ud.dll
 0005:00002850       __imp_?Create@CLinkCtrl@@UEAAHKAEBUtagRECT@@PEAVCWnd@@I@Z 0000000140060850     mfc100ud:mfc100ud.dll
 0005:00002858       __imp_?CreateEx@CLinkCtrl@@UEAAHPEB_WKKAEBUtagRECT@@PEAVCWnd@@I@Z 0000000140060858     mfc100ud:mfc100ud.dll
 0005:00002860       __imp_?CreateEx@CLinkCtrl@@UEAAHKKAEBUtagRECT@@PEAVCWnd@@I@Z 0000000140060860     mfc100ud:mfc100ud.dll
 0005:00002868       __imp_??1CWnd@@UEAA@XZ     0000000140060868     mfc100ud:mfc100ud.dll
 0005:00002870       __imp_?GetThisClass@CDialog@@SAPEAUCRuntimeClass@@XZ 0000000140060870     mfc100ud:mfc100ud.dll
 0005:00002878       __imp_?DDX_Radio@@YAXPEAVCDataExchange@@HAEAH@Z 0000000140060878     mfc100ud:mfc100ud.dll
 0005:00002880       __imp_?SetCheck@CButton@@QEAAXH@Z 0000000140060880     mfc100ud:mfc100ud.dll
 0005:00002888       __imp_?GetStyle@CWnd@@QEBAKXZ 0000000140060888     mfc100ud:mfc100ud.dll
 0005:00002890       __imp_?GetDlgItem@CWnd@@QEBAPEAV1@H@Z 0000000140060890     mfc100ud:mfc100ud.dll
 0005:00002898       __imp_?GetThisClass@CWnd@@SAPEAUCRuntimeClass@@XZ 0000000140060898     mfc100ud:mfc100ud.dll
 0005:000028a0       __imp_?AfxRegisterWndClass@@YAPEB_WIPEAUHICON__@@PEAUHBRUSH__@@0@Z 00000001400608a0     mfc100ud:mfc100ud.dll
 0005:000028a8       __imp_?AfxIsValidString@@YAHPEB_WH@Z 00000001400608a8     mfc100ud:mfc100ud.dll
 0005:000028b0       __imp_?AfxGetResourceHandle@@YAPEAUHINSTANCE__@@XZ 00000001400608b0     mfc100ud:mfc100ud.dll
 0005:000028b8       __imp_?Delete@CException@@QEAAXXZ 00000001400608b8     mfc100ud:mfc100ud.dll
 0005:000028c0       __imp_?KillTimer@CWnd@@QEAAH_K@Z 00000001400608c0     mfc100ud:mfc100ud.dll
 0005:000028c8       __imp_?AfxGetMainWnd@@YAPEAVCWnd@@XZ 00000001400608c8     mfc100ud:mfc100ud.dll
 0005:000028d0       __imp_?GetSubMenu@CMenu@@QEBAPEAV1@H@Z 00000001400608d0     mfc100ud:mfc100ud.dll
 0005:000028d8       __imp_??1CMenu@@UEAA@XZ    00000001400608d8     mfc100ud:mfc100ud.dll
 0005:000028e0       __imp_?LoadMenuW@CMenu@@QEAAHI@Z 00000001400608e0     mfc100ud:mfc100ud.dll
 0005:000028e8       __imp_??0CMenu@@QEAA@XZ    00000001400608e8     mfc100ud:mfc100ud.dll
 0005:000028f0       __imp_?OnSettingChange@CWnd@@IEAAXIPEB_W@Z 00000001400608f0     mfc100ud:mfc100ud.dll
 0005:000028f8       __imp_?GetMenuItemID@CMenu@@QEBAIH@Z 00000001400608f8     mfc100ud:mfc100ud.dll
 0005:00002900       __imp_?DestroyMenu@CMenu@@QEAAHXZ 0000000140060900     mfc100ud:mfc100ud.dll
 0005:00002908       __imp_?PostMessageW@CWnd@@QEAAHI_K_J@Z 0000000140060908     mfc100ud:mfc100ud.dll
 0005:00002910       __imp_?SetForegroundWindow@CWnd@@QEAAHXZ 0000000140060910     mfc100ud:mfc100ud.dll
 0005:00002918       __imp_?SetParent@CWnd@@QEAAPEAV1@PEAV1@@Z 0000000140060918     mfc100ud:mfc100ud.dll
 0005:00002920       __imp_?ModifyStyle@CWnd@@QEAAHKKI@Z 0000000140060920     mfc100ud:mfc100ud.dll
 0005:00002928       __imp_?SetActiveWindow@CWnd@@QEAAPEAV1@XZ 0000000140060928     mfc100ud:mfc100ud.dll
 0005:00002930       __imp_?RedrawWindow@CWnd@@QEAAHPEBUtagRECT@@PEAVCRgn@@I@Z 0000000140060930     mfc100ud:mfc100ud.dll
 0005:00002938       __imp_?GetRuntimeClass@CObject@@UEBAPEAUCRuntimeClass@@XZ 0000000140060938     mfc100ud:mfc100ud.dll
 0005:00002940       __imp_??_V@YAXPEAX@Z       0000000140060940     mfc100ud:mfc100ud.dll
 0005:00002948       __imp_?ReadCount@CArchive@@QEAA_KXZ 0000000140060948     mfc100ud:mfc100ud.dll
 0005:00002950       __imp_?WriteCount@CArchive@@QEAAX_K@Z 0000000140060950     mfc100ud:mfc100ud.dll
 0005:00002958       __imp_?IsStoring@CArchive@@QEBAHXZ 0000000140060958     mfc100ud:mfc100ud.dll
 0005:00002960       __imp_?GetDepth@CDumpContext@@QEBAHXZ 0000000140060960     mfc100ud:mfc100ud.dll
 0005:00002968       __imp_??6CDumpContext@@QEAAAEAV0@_J@Z 0000000140060968     mfc100ud:mfc100ud.dll
 0005:00002970       __imp_??6CDumpContext@@QEAAAEAV0@PEBD@Z 0000000140060970     mfc100ud:mfc100ud.dll
 0005:00002978       __imp_?AfxIsValidAddress@@YAHPEBX_KH@Z 0000000140060978     mfc100ud:mfc100ud.dll
 0005:00002980       __imp_??_U@YAPEAX_K@Z      0000000140060980     mfc100ud:mfc100ud.dll
 0005:00002988       __imp_??_U@YAPEAX_KPEBDH@Z 0000000140060988     mfc100ud:mfc100ud.dll
 0005:00002990       __imp_?AfxThrowInvalidArgException@@YAXXZ 0000000140060990     mfc100ud:mfc100ud.dll
 0005:00002998       __imp_?AfxThrowMemoryException@@YAXXZ 0000000140060998     mfc100ud:mfc100ud.dll
 0005:000029a0       __imp_?EnsureRead@CArchive@@QEAAXPEAXI@Z 00000001400609a0     mfc100ud:mfc100ud.dll
 0005:000029a8       __imp_?Write@CArchive@@QEAAXPEBXI@Z 00000001400609a8     mfc100ud:mfc100ud.dll
 0005:000029b0       __imp_?Dump@CDialog@@UEBAXAEAVCDumpContext@@@Z 00000001400609b0     mfc100ud:mfc100ud.dll
 0005:000029b8       __imp_?AssertValid@CDialog@@UEBAXXZ 00000001400609b8     mfc100ud:mfc100ud.dll
 0005:000029c0       __imp_??0CDialogEx@@QEAA@IPEAVCWnd@@@Z 00000001400609c0     mfc100ud:mfc100ud.dll
 0005:000029c8       __imp_?GetThisClass@CDialogEx@@SAPEAUCRuntimeClass@@XZ 00000001400609c8     mfc100ud:mfc100ud.dll
 0005:000029d0       __imp_?OnMouseMove@CWnd@@IEAAXIVCPoint@@@Z 00000001400609d0     mfc100ud:mfc100ud.dll
 0005:000029d8       __imp_??1CButton@@UEAA@XZ  00000001400609d8     mfc100ud:mfc100ud.dll
 0005:000029e0       __imp_?DrawItem@CButton@@UEAAXPEAUtagDRAWITEMSTRUCT@@@Z 00000001400609e0     mfc100ud:mfc100ud.dll
 0005:000029e8       __imp_?Create@CButton@@UEAAHPEB_WKAEBUtagRECT@@PEAVCWnd@@I@Z 00000001400609e8     mfc100ud:mfc100ud.dll
 0005:000029f0       __imp_?OnChildNotify@CButton@@MEAAHI_K_JPEA_J@Z 00000001400609f0     mfc100ud:mfc100ud.dll
 0005:000029f8       __imp_??0CButton@@QEAA@XZ  00000001400609f8     mfc100ud:mfc100ud.dll
 0005:00002a00       __imp_?GetThisClass@CButton@@SAPEAUCRuntimeClass@@XZ 0000000140060a00     mfc100ud:mfc100ud.dll
 0005:00002a08       __imp_?OnLButtonDown@CWnd@@IEAAXIVCPoint@@@Z 0000000140060a08     mfc100ud:mfc100ud.dll
 0005:00002a10       __imp_?GetSafeHwnd@CWnd@@QEBAPEAUHWND__@@XZ 0000000140060a10     mfc100ud:mfc100ud.dll
 0005:00002a18       __imp_?GetWindowTextW@CWnd@@QEBAXAEAV?$CStringT@_WV?$StrTraitMFC_DLL@_WV?$ChTraitsCRT@_W@ATL@@@@@ATL@@@Z 0000000140060a18     mfc100ud:mfc100ud.dll
 0005:00002a20       __imp_??0COleDataSource@@QEAA@XZ 0000000140060a20     mfc100ud:mfc100ud.dll
 0005:00002a28       __imp_?Empty@COleDataSource@@QEAAXXZ 0000000140060a28     mfc100ud:mfc100ud.dll
 0005:00002a30       __imp_?CacheGlobalData@COleDataSource@@QEAAXGPEAXPEAUtagFORMATETC@@@Z 0000000140060a30     mfc100ud:mfc100ud.dll
 0005:00002a38       __imp_?DoDragDrop@COleDataSource@@QEAAKKPEBUtagRECT@@PEAVCOleDropSource@@@Z 0000000140060a38     mfc100ud:mfc100ud.dll
 0005:00002a40       __imp_?Format@?$CStringT@_WV?$StrTraitMFC_DLL@_WV?$ChTraitsCRT@_W@ATL@@@@@ATL@@QEAAXPEB_WZZ 0000000140060a40     mfc100ud:mfc100ud.dll
 0005:00002a48       __imp_??1COleDataSource@@UEAA@XZ 0000000140060a48     mfc100ud:mfc100ud.dll
 0005:00002a50       __imp_?GetGlobalData@COleDataObject@@QEAAPEAXGPEAUtagFORMATETC@@@Z 0000000140060a50     mfc100ud:mfc100ud.dll
 0005:00002a58       __imp_?SetWindowTextW@CWnd@@QEAAXPEB_W@Z 0000000140060a58     mfc100ud:mfc100ud.dll
 0005:00002a60       __imp_?IsKindOf@CObject@@QEBAHPEBUCRuntimeClass@@@Z 0000000140060a60     mfc100ud:mfc100ud.dll
 0005:00002a68       __imp_?AfxAssertFailedLine@@YAHPEBDH@Z 0000000140060a68     mfc100ud:mfc100ud.dll
 0005:00002a70       __imp_?IsDataAvailable@COleDataObject@@QEAAHGPEAUtagFORMATETC@@@Z 0000000140060a70     mfc100ud:mfc100ud.dll
 0005:00002a78       __imp_?Register@COleDropTarget@@QEAAHPEAVCWnd@@@Z 0000000140060a78     mfc100ud:mfc100ud.dll
 0005:00002a80       __imp_?GetThisMessageMap@CWnd@@KAPEBUAFX_MSGMAP@@XZ 0000000140060a80     mfc100ud:mfc100ud.dll
 0005:00002a88       __imp_?PreTranslateMessage@CWnd@@UEAAHPEAUtagMSG@@@Z 0000000140060a88     mfc100ud:mfc100ud.dll
 0005:00002a90       __imp_?OnCmdMsg@CCmdTarget@@UEAAHIHPEAXPEAUAFX_CMDHANDLERINFO@@@Z 0000000140060a90     mfc100ud:mfc100ud.dll
 0005:00002a98       __imp_?Dump@CWnd@@UEBAXAEAVCDumpContext@@@Z 0000000140060a98     mfc100ud:mfc100ud.dll
 0005:00002aa0       __imp_?AssertValid@CWnd@@UEBAXXZ 0000000140060aa0     mfc100ud:mfc100ud.dll
 0005:00002aa8       __imp_?GetRuntimeClass@CEdit@@UEBAPEAUCRuntimeClass@@XZ 0000000140060aa8     mfc100ud:mfc100ud.dll
 0005:00002ab0       __imp_??0CEdit@@QEAA@XZ    0000000140060ab0     mfc100ud:mfc100ud.dll
 0005:00002ab8       __imp_??1CEdit@@UEAA@XZ    0000000140060ab8     mfc100ud:mfc100ud.dll
 0005:00002ac0       __imp_?GetThisMessageMap@CPropertySheet@@KAPEBUAFX_MSGMAP@@XZ 0000000140060ac0     mfc100ud:mfc100ud.dll
 0005:00002ac8       __imp_??0CPropertySheet@@QEAA@PEB_WPEAVCWnd@@I@Z 0000000140060ac8     mfc100ud:mfc100ud.dll
 0005:00002ad0       __imp_?BuildPropPageArray@CPropertySheet@@UEAAXXZ 0000000140060ad0     mfc100ud:mfc100ud.dll
 0005:00002ad8       __imp_?OnInitDialog@CPropertySheet@@UEAAHXZ 0000000140060ad8     mfc100ud:mfc100ud.dll
 0005:00002ae0       __imp_?DoModal@CPropertySheet@@UEAA_JXZ 0000000140060ae0     mfc100ud:mfc100ud.dll
 0005:00002ae8       __imp_?Create@CPropertySheet@@UEAAHPEAVCWnd@@KK@Z 0000000140060ae8     mfc100ud:mfc100ud.dll
 0005:00002af0       __imp_?GetOccDialogInfo@CWnd@@MEAAPEAU_AFX_OCC_DIALOG_INFO@@XZ 0000000140060af0     mfc100ud:mfc100ud.dll
 0005:00002af8       __imp_?SetOccDialogInfo@CWnd@@MEAAHPEAU_AFX_OCC_DIALOG_INFO@@@Z 0000000140060af8     mfc100ud:mfc100ud.dll
 0005:00002b00       __imp_?CheckAutoCenter@CWnd@@UEAAHXZ 0000000140060b00     mfc100ud:mfc100ud.dll
 0005:00002b08       __imp_?PreTranslateMessage@CPropertySheet@@UEAAHPEAUtagMSG@@@Z 0000000140060b08     mfc100ud:mfc100ud.dll
 0005:00002b10       __imp_?OnNotify@CWnd@@MEAAH_K_JPEA_J@Z 0000000140060b10     mfc100ud:mfc100ud.dll
 0005:00002b18       __imp_?OnCommand@CPropertySheet@@UEAAH_K_J@Z 0000000140060b18     mfc100ud:mfc100ud.dll
 0005:00002b20       __imp_?ContinueModal@CPropertySheet@@UEAAHXZ 0000000140060b20     mfc100ud:mfc100ud.dll
 0005:00002b28       __imp_?OnCmdMsg@CPropertySheet@@UEAAHIHPEAXPEAUAFX_CMDHANDLERINFO@@@Z 0000000140060b28     mfc100ud:mfc100ud.dll
 0005:00002b30       __imp_?Dump@CPropertySheet@@UEBAXAEAVCDumpContext@@@Z 0000000140060b30     mfc100ud:mfc100ud.dll
 0005:00002b38       __imp_?AssertValid@CPropertySheet@@UEBAXXZ 0000000140060b38     mfc100ud:mfc100ud.dll
 0005:00002b40       __imp_??0CPropertySheet@@QEAA@IPEAVCWnd@@I@Z 0000000140060b40     mfc100ud:mfc100ud.dll
 0005:00002b48       __imp_?AddPage@CPropertySheet@@QEAAXPEAVCPropertyPage@@@Z 0000000140060b48     mfc100ud:mfc100ud.dll
 0005:00002b50       __imp_?GetPageCount@CPropertySheet@@QEBAHXZ 0000000140060b50     mfc100ud:mfc100ud.dll
 0005:00002b58       __imp_?GetPage@CPropertySheet@@QEBAPEAVCPropertyPage@@H@Z 0000000140060b58     mfc100ud:mfc100ud.dll
 0005:00002b60       __imp_?GetPSP@CPropertyPage@@QEAAAEAU_PROPSHEETPAGEW@@XZ 0000000140060b60     mfc100ud:mfc100ud.dll
 0005:00002b68       __imp_?SetActivePage@CPropertySheet@@QEAAHH@Z 0000000140060b68     mfc100ud:mfc100ud.dll
 0005:00002b70       __imp_??1CPropertySheet@@UEAA@XZ 0000000140060b70     mfc100ud:mfc100ud.dll
 0005:00002b78       __imp_?GetThisClass@CPropertySheet@@SAPEAUCRuntimeClass@@XZ 0000000140060b78     mfc100ud:mfc100ud.dll
 0005:00002b80       __imp_?GetManager@?$CStringT@_WV?$StrTraitMFC_DLL@_WV?$ChTraitsCRT@_W@ATL@@@@@ATL@@QEBAPEAUIAtlStringMgr@2@XZ 0000000140060b80     mfc100ud:mfc100ud.dll
 0005:00002b88       __imp_??0?$CStringT@_WV?$StrTraitMFC_DLL@_WV?$ChTraitsCRT@_W@ATL@@@@@ATL@@QEAA@PEAUIAtlStringMgr@1@@Z 0000000140060b88     mfc100ud:mfc100ud.dll
 0005:00002b90       __imp_?StringLength@?$CSimpleStringT@_W$00@ATL@@SAHPEB_W@Z 0000000140060b90     mfc100ud:mfc100ud.dll
 0005:00002b98       __imp_?GetLength@?$CSimpleStringT@_W$00@ATL@@QEBAHXZ 0000000140060b98     mfc100ud:mfc100ud.dll
 0005:00002ba0       __imp_?Concatenate@?$CSimpleStringT@_W$00@ATL@@KAXAEAV12@PEB_WH1H@Z 0000000140060ba0     mfc100ud:mfc100ud.dll
 0005:00002ba8       __imp_??0?$CStringT@_WV?$StrTraitMFC_DLL@_WV?$ChTraitsCRT@_W@ATL@@@@@ATL@@QEAA@AEBV01@@Z 0000000140060ba8     mfc100ud:mfc100ud.dll
 0005:00002bb0       __imp_??Y?$CStringT@_WV?$StrTraitMFC_DLL@_WV?$ChTraitsCRT@_W@ATL@@@@@ATL@@QEAAAEAV01@AEBV?$CSimpleStringT@_W$00@1@@Z 0000000140060bb0     mfc100ud:mfc100ud.dll
 0005:00002bb8       __imp_??Y?$CStringT@_WV?$StrTraitMFC_DLL@_WV?$ChTraitsCRT@_W@ATL@@@@@ATL@@QEAAAEAV01@PEB_W@Z 0000000140060bb8     mfc100ud:mfc100ud.dll
 0005:00002bc0       __imp_?DDX_Text@@YAXPEAVCDataExchange@@HAEAH@Z 0000000140060bc0     mfc100ud:mfc100ud.dll
 0005:00002bc8       __imp_?DDV_MinMaxInt@@YAXPEAVCDataExchange@@HHH@Z 0000000140060bc8     mfc100ud:mfc100ud.dll
 0005:00002bd0       __imp_?Compare@?$CStringT@_WV?$StrTraitMFC_DLL@_WV?$ChTraitsCRT@_W@ATL@@@@@ATL@@QEBAHPEB_W@Z 0000000140060bd0     mfc100ud:mfc100ud.dll
 0005:00002bd8       __imp_?OnCancel@CPropertyPage@@UEAAXXZ 0000000140060bd8     mfc100ud:mfc100ud.dll
 0005:00002be0       __imp_?OnApply@CPropertyPage@@UEAAHXZ 0000000140060be0     mfc100ud:mfc100ud.dll
 0005:00002be8       __imp_?SetModified@CPropertyPage@@QEAAXH@Z 0000000140060be8     mfc100ud:mfc100ud.dll
 0005:00002bf0       __imp_?UpdateData@CWnd@@QEAAHH@Z 0000000140060bf0     mfc100ud:mfc100ud.dll
 0005:00002bf8       __imp_?MessageBoxW@CWnd@@QEAAHPEB_W0I@Z 0000000140060bf8     mfc100ud:mfc100ud.dll
 0005:00002c00       __imp_??B?$CSimpleStringT@_W$00@ATL@@QEBAPEB_WXZ 0000000140060c00     mfc100ud:mfc100ud.dll
 0005:00002c08       __imp_?GetParent@CWnd@@QEBAPEAV1@XZ 0000000140060c08     mfc100ud:mfc100ud.dll
 0005:00002c10       __imp_?LoadStringW@?$CStringT@_WV?$StrTraitMFC_DLL@_WV?$ChTraitsCRT@_W@ATL@@@@@ATL@@QEAAHI@Z 0000000140060c10     mfc100ud:mfc100ud.dll
 0005:00002c18       __imp_??4?$CStringT@_WV?$StrTraitMFC_DLL@_WV?$ChTraitsCRT@_W@ATL@@@@@ATL@@QEAAAEAV01@AEBV01@@Z 0000000140060c18     mfc100ud:mfc100ud.dll
 0005:00002c20       __imp_?OnOK@CPropertyPage@@UEAAXXZ 0000000140060c20     mfc100ud:mfc100ud.dll
 0005:00002c28       __imp_?GetThisMessageMap@CPropertyPage@@KAPEBUAFX_MSGMAP@@XZ 0000000140060c28     mfc100ud:mfc100ud.dll
 0005:00002c30       __imp_?DoDataExchange@CWnd@@MEAAXPEAVCDataExchange@@@Z 0000000140060c30     mfc100ud:mfc100ud.dll
 0005:00002c38       __imp_?DDX_Text@@YAXPEAVCDataExchange@@HAEAV?$CStringT@_WV?$StrTraitMFC_DLL@_WV?$ChTraitsCRT@_W@ATL@@@@@ATL@@@Z 0000000140060c38     mfc100ud:mfc100ud.dll
 0005:00002c40       __imp_??3CObject@@SAXPEAX@Z 0000000140060c40     mfc100ud:mfc100ud.dll
 0005:00002c48       __imp_?OnWizardFinishEx@CPropertyPage@@UEAAPEAUHWND__@@XZ 0000000140060c48     mfc100ud:mfc100ud.dll
 0005:00002c50       __imp_?OnWizardFinish@CPropertyPage@@UEAAHXZ 0000000140060c50     mfc100ud:mfc100ud.dll
 0005:00002c58       __imp_?OnWizardNext@CPropertyPage@@UEAA_JXZ 0000000140060c58     mfc100ud:mfc100ud.dll
 0005:00002c60       __imp_?OnWizardBack@CPropertyPage@@UEAA_JXZ 0000000140060c60     mfc100ud:mfc100ud.dll
 0005:00002c68       __imp_?OnQueryCancel@CPropertyPage@@UEAAHXZ 0000000140060c68     mfc100ud:mfc100ud.dll
 0005:00002c70       __imp_?OnKillActive@CPropertyPage@@UEAAHXZ 0000000140060c70     mfc100ud:mfc100ud.dll
 0005:00002c78       __imp_?OnSetActive@CPropertyPage@@UEAAHXZ 0000000140060c78     mfc100ud:mfc100ud.dll
 0005:00002c80       __imp_?OnReset@CPropertyPage@@UEAAXXZ 0000000140060c80     mfc100ud:mfc100ud.dll
 0005:00002c88       __imp_?PreInitDialog@CDialog@@MEAAXXZ 0000000140060c88     mfc100ud:mfc100ud.dll
 0005:00002c90       __imp_?OnSetFont@CDialog@@UEAAXPEAVCFont@@@Z 0000000140060c90     mfc100ud:mfc100ud.dll
 0005:00002c98       __imp_?OnInitDialog@CDialog@@UEAAHXZ 0000000140060c98     mfc100ud:mfc100ud.dll
 0005:00002ca0       __imp_?DoModal@CDialog@@UEAA_JXZ 0000000140060ca0     mfc100ud:mfc100ud.dll
 0005:00002ca8       __imp_?CreateIndirect@CDialog@@UEAAHPEBUDLGTEMPLATE@@PEAVCWnd@@PEAX@Z 0000000140060ca8     mfc100ud:mfc100ud.dll
 0005:00002cb0       __imp_?CreateIndirect@CDialog@@UEAAHPEAXPEAVCWnd@@@Z 0000000140060cb0     mfc100ud:mfc100ud.dll
 0005:00002cb8       __imp_?Create@CDialog@@UEAAHPEB_WPEAVCWnd@@@Z 0000000140060cb8     mfc100ud:mfc100ud.dll
 0005:00002cc0       __imp_?Create@CDialog@@UEAAHIPEAVCWnd@@@Z 0000000140060cc0     mfc100ud:mfc100ud.dll
 0005:00002cc8       __imp_?GetOccDialogInfo@CDialog@@MEAAPEAU_AFX_OCC_DIALOG_INFO@@XZ 0000000140060cc8     mfc100ud:mfc100ud.dll
 0005:00002cd0       __imp_?SetOccDialogInfo@CDialog@@MEAAHPEAU_AFX_OCC_DIALOG_INFO@@@Z 0000000140060cd0     mfc100ud:mfc100ud.dll
 0005:00002cd8       __imp_?CreateControlSite@CWnd@@MEAAHPEAVCOleControlContainer@@PEAPEAVCOleControlSite@@IAEBU_GUID@@@Z 0000000140060cd8     mfc100ud:mfc100ud.dll
 0005:00002ce0       __imp_?CreateControlContainer@CWnd@@MEAAHPEAPEAVCOleControlContainer@@@Z 0000000140060ce0     mfc100ud:mfc100ud.dll
 0005:00002ce8       __imp_?IsFrameWnd@CWnd@@UEBAHXZ 0000000140060ce8     mfc100ud:mfc100ud.dll
 0005:00002cf0       __imp_?CheckAutoCenter@CDialog@@UEAAHXZ 0000000140060cf0     mfc100ud:mfc100ud.dll
 0005:00002cf8       __imp_?OnGesturePressAndTap@CWnd@@MEAAHVCPoint@@J@Z 0000000140060cf8     mfc100ud:mfc100ud.dll
 0005:00002d00       __imp_?OnGestureTwoFingerTap@CWnd@@MEAAHVCPoint@@@Z 0000000140060d00     mfc100ud:mfc100ud.dll
 0005:00002d08       __imp_?OnGestureRotate@CWnd@@MEAAHVCPoint@@N@Z 0000000140060d08     mfc100ud:mfc100ud.dll
 0005:00002d10       __imp_?OnGesturePan@CWnd@@MEAAHVCPoint@@0@Z 0000000140060d10     mfc100ud:mfc100ud.dll
 0005:00002d18       __imp_?OnGestureZoom@CWnd@@MEAAHVCPoint@@J@Z 0000000140060d18     mfc100ud:mfc100ud.dll
 0005:00002d20       __imp_?GetGestureStatus@CWnd@@MEAAKVCPoint@@@Z 0000000140060d20     mfc100ud:mfc100ud.dll
 0005:00002d28       __imp_?OnTouchInput@CWnd@@MEAAHVCPoint@@HHPEAUtagTOUCHINPUT@@@Z 0000000140060d28     mfc100ud:mfc100ud.dll
 0005:00002d30       __imp_?OnTouchInputs@CWnd@@MEAAHIPEAUtagTOUCHINPUT@@@Z 0000000140060d30     mfc100ud:mfc100ud.dll
 0005:00002d38       __imp_?OnChildNotify@CWnd@@MEAAHI_K_JPEA_J@Z 0000000140060d38     mfc100ud:mfc100ud.dll
 0005:00002d40       __imp_?PostNcDestroy@CWnd@@MEAAXXZ 0000000140060d40     mfc100ud:mfc100ud.dll
 0005:00002d48       __imp_?DefWindowProcW@CWnd@@MEAA_JI_K_J@Z 0000000140060d48     mfc100ud:mfc100ud.dll
 0005:00002d50       __imp_?OnWndMsg@CWnd@@MEAAHI_K_JPEA_J@Z 0000000140060d50     mfc100ud:mfc100ud.dll
 0005:00002d58       __imp_?WindowProc@CWnd@@MEAA_JI_K_J@Z 0000000140060d58     mfc100ud:mfc100ud.dll
 0005:00002d60       __imp_?OnAmbientProperty@CWnd@@UEAAHPEAVCOleControlSite@@JPEAUtagVARIANT@@@Z 0000000140060d60     mfc100ud:mfc100ud.dll
 0005:00002d68       __imp_?PreTranslateMessage@CPropertyPage@@MEAAHPEAUtagMSG@@@Z 0000000140060d68     mfc100ud:mfc100ud.dll
 0005:00002d70       __imp_?EndModalState@CWnd@@UEAAXXZ 0000000140060d70     mfc100ud:mfc100ud.dll
 0005:00002d78       __imp_?BeginModalState@CWnd@@UEAAXXZ 0000000140060d78     mfc100ud:mfc100ud.dll
 0005:00002d80       __imp_?GetSuperWndProcAddr@CWnd@@MEAAPEAP6A_JPEAUHWND__@@I_K_J@ZXZ 0000000140060d80     mfc100ud:mfc100ud.dll
 0005:00002d88       __imp_?OnNotify@CPropertyPage@@MEAAH_K_JPEA_J@Z 0000000140060d88     mfc100ud:mfc100ud.dll
 0005:00002d90       __imp_?OnCommand@CWnd@@MEAAH_K_J@Z 0000000140060d90     mfc100ud:mfc100ud.dll
 0005:00002d98       __imp_?CreateAccessibleProxy@CWnd@@UEAAJ_K_JPEA_J@Z 0000000140060d98     mfc100ud:mfc100ud.dll
 0005:00002da0       __imp_?SetProxy@CWnd@@UEAAJPEAUIAccessibleProxy@@@Z 0000000140060da0     mfc100ud:mfc100ud.dll
 0005:00002da8       __imp_?put_accValue@CWnd@@UEAAJUtagVARIANT@@PEA_W@Z 0000000140060da8     mfc100ud:mfc100ud.dll
 0005:00002db0       __imp_?put_accName@CWnd@@UEAAJUtagVARIANT@@PEA_W@Z 0000000140060db0     mfc100ud:mfc100ud.dll
 0005:00002db8       __imp_?accDoDefaultAction@CWnd@@UEAAJUtagVARIANT@@@Z 0000000140060db8     mfc100ud:mfc100ud.dll
 0005:00002dc0       __imp_?accHitTest@CWnd@@UEAAJJJPEAUtagVARIANT@@@Z 0000000140060dc0     mfc100ud:mfc100ud.dll
 0005:00002dc8       __imp_?accNavigate@CWnd@@UEAAJJUtagVARIANT@@PEAU2@@Z 0000000140060dc8     mfc100ud:mfc100ud.dll
 0005:00002dd0       __imp_?accLocation@CWnd@@UEAAJPEAJ000UtagVARIANT@@@Z 0000000140060dd0     mfc100ud:mfc100ud.dll
 0005:00002dd8       __imp_?accSelect@CWnd@@UEAAJJUtagVARIANT@@@Z 0000000140060dd8     mfc100ud:mfc100ud.dll
 0005:00002de0       __imp_?get_accDefaultAction@CWnd@@UEAAJUtagVARIANT@@PEAPEA_W@Z 0000000140060de0     mfc100ud:mfc100ud.dll
 0005:00002de8       __imp_?get_accSelection@CWnd@@UEAAJPEAUtagVARIANT@@@Z 0000000140060de8     mfc100ud:mfc100ud.dll
 0005:00002df0       __imp_?get_accFocus@CWnd@@UEAAJPEAUtagVARIANT@@@Z 0000000140060df0     mfc100ud:mfc100ud.dll
 0005:00002df8       __imp_?get_accKeyboardShortcut@CWnd@@UEAAJUtagVARIANT@@PEAPEA_W@Z 0000000140060df8     mfc100ud:mfc100ud.dll
 0005:00002e00       __imp_?get_accHelpTopic@CWnd@@UEAAJPEAPEA_WUtagVARIANT@@PEAJ@Z 0000000140060e00     mfc100ud:mfc100ud.dll
 0005:00002e08       __imp_?get_accHelp@CWnd@@UEAAJUtagVARIANT@@PEAPEA_W@Z 0000000140060e08     mfc100ud:mfc100ud.dll
 0005:00002e10       __imp_?get_accState@CWnd@@UEAAJUtagVARIANT@@PEAU2@@Z 0000000140060e10     mfc100ud:mfc100ud.dll
 0005:00002e18       __imp_?get_accRole@CWnd@@UEAAJUtagVARIANT@@PEAU2@@Z 0000000140060e18     mfc100ud:mfc100ud.dll
 0005:00002e20       __imp_?get_accDescription@CWnd@@UEAAJUtagVARIANT@@PEAPEA_W@Z 0000000140060e20     mfc100ud:mfc100ud.dll
 0005:00002e28       __imp_?get_accValue@CWnd@@UEAAJUtagVARIANT@@PEAPEA_W@Z 0000000140060e28     mfc100ud:mfc100ud.dll
 0005:00002e30       __imp_?get_accName@CWnd@@UEAAJUtagVARIANT@@PEAPEA_W@Z 0000000140060e30     mfc100ud:mfc100ud.dll
 0005:00002e38       __imp_?get_accChild@CWnd@@UEAAJUtagVARIANT@@PEAPEAUIDispatch@@@Z 0000000140060e38     mfc100ud:mfc100ud.dll
 0005:00002e40       __imp_??2@YAPEAX_K@Z       0000000140060e40     mfc100ud:mfc100ud.dll
 0005:00002e48       __imp_?get_accChildCount@CWnd@@UEAAJPEAJ@Z 0000000140060e48     mfc100ud:mfc100ud.dll
 0005:00002e50       __imp_?get_accParent@CWnd@@UEAAJPEAPEAUIDispatch@@@Z 0000000140060e50     mfc100ud:mfc100ud.dll
 0005:00002e58       __imp_?EnsureStdObj@CWnd@@UEAAJXZ 0000000140060e58     mfc100ud:mfc100ud.dll
 0005:00002e60       __imp_?OnDrawIconicThumbnailOrLivePreview@CWnd@@UEAAXAEAVCDC@@VCRect@@VCSize@@HAEAH@Z 0000000140060e60     mfc100ud:mfc100ud.dll
 0005:00002e68       __imp_?EndModalLoop@CWnd@@UEAAXH@Z 0000000140060e68     mfc100ud:mfc100ud.dll
 0005:00002e70       __imp_?ContinueModal@CWnd@@UEAAHXZ 0000000140060e70     mfc100ud:mfc100ud.dll
 0005:00002e78       __imp_?WinHelpInternal@CWnd@@UEAAX_KI@Z 0000000140060e78     mfc100ud:mfc100ud.dll
 0005:00002e80       __imp_?HtmlHelpW@CWnd@@UEAAX_KI@Z 0000000140060e80     mfc100ud:mfc100ud.dll
 0005:00002e88       __imp_?WinHelpW@CWnd@@UEAAX_KI@Z 0000000140060e88     mfc100ud:mfc100ud.dll
 0005:00002e90       __imp_?GetScrollBarCtrl@CWnd@@UEBAPEAVCScrollBar@@H@Z 0000000140060e90     mfc100ud:mfc100ud.dll
 0005:00002e98       __imp_?OnToolHitTest@CWnd@@UEBA_JVCPoint@@PEAUtagTOOLINFOW@@@Z 0000000140060e98     mfc100ud:mfc100ud.dll
 0005:00002ea0       __imp_?SetMenu@CWnd@@UEAAHPEAVCMenu@@@Z 0000000140060ea0     mfc100ud:mfc100ud.dll
 0005:00002ea8       __imp_?GetMenu@CWnd@@UEBAPEAVCMenu@@XZ 0000000140060ea8     mfc100ud:mfc100ud.dll
 0005:00002eb0       __imp_?CalcWindowRect@CWnd@@UEAAXPEAUtagRECT@@I@Z 0000000140060eb0     mfc100ud:mfc100ud.dll
 0005:00002eb8       __imp_?PreCreateWindow@CWnd@@UEAAHAEAUtagCREATESTRUCTW@@@Z 0000000140060eb8     mfc100ud:mfc100ud.dll
 0005:00002ec0       __imp_?DestroyWindow@CWnd@@UEAAHXZ 0000000140060ec0     mfc100ud:mfc100ud.dll
 0005:00002ec8       __imp_?CreateEx@CWnd@@UEAAHKPEB_W0KHHHHPEAUHWND__@@PEAUHMENU__@@PEAX@Z 0000000140060ec8     mfc100ud:mfc100ud.dll
 0005:00002ed0       __imp_?CreateEx@CWnd@@UEAAHKPEB_W0KAEBUtagRECT@@PEAV1@IPEAX@Z 0000000140060ed0     mfc100ud:mfc100ud.dll
 0005:00002ed8       __imp_?Create@CWnd@@UEAAHPEB_W0KAEBUtagRECT@@PEAV1@IPEAUCCreateContext@@@Z 0000000140060ed8     mfc100ud:mfc100ud.dll
 0005:00002ee0       __imp_?PreSubclassWindow@CWnd@@UEAAXXZ 0000000140060ee0     mfc100ud:mfc100ud.dll
 0005:00002ee8       __imp_?GetConnectionHook@CCmdTarget@@MEAAPEAUIConnectionPoint@@AEBU_GUID@@@Z 0000000140060ee8     mfc100ud:mfc100ud.dll
 0005:00002ef0       __imp_?GetExtraConnectionPoints@CCmdTarget@@MEAAHPEAVCPtrArray@@@Z 0000000140060ef0     mfc100ud:mfc100ud.dll
 0005:00002ef8       __imp_?GetInterfaceHook@CCmdTarget@@UEAAPEAUIUnknown@@PEBX@Z 0000000140060ef8     mfc100ud:mfc100ud.dll
 0005:00002f00       __imp_?OnCreateAggregates@CCmdTarget@@UEAAHXZ 0000000140060f00     mfc100ud:mfc100ud.dll
 0005:00002f08       __imp_?GetEventSinkMap@CCmdTarget@@MEBAPEBUAFX_EVENTSINKMAP@@XZ 0000000140060f08     mfc100ud:mfc100ud.dll
 0005:00002f10       __imp_?GetInterfaceMap@CWnd@@MEBAPEBUAFX_INTERFACEMAP@@XZ 0000000140060f10     mfc100ud:mfc100ud.dll
 0005:00002f18       __imp_?GetConnectionMap@CCmdTarget@@MEBAPEBUAFX_CONNECTIONMAP@@XZ 0000000140060f18     mfc100ud:mfc100ud.dll
 0005:00002f20       __imp_?GetDispatchMap@CCmdTarget@@MEBAPEBUAFX_DISPMAP@@XZ 0000000140060f20     mfc100ud:mfc100ud.dll
 0005:00002f28       __imp_?GetCommandMap@CCmdTarget@@MEBAPEBUAFX_OLECMDMAP@@XZ 0000000140060f28     mfc100ud:mfc100ud.dll
 0005:00002f30       __imp_?GetTypeLib@CCmdTarget@@UEAAJKPEAPEAUITypeLib@@@Z 0000000140060f30     mfc100ud:mfc100ud.dll
 0005:00002f38       __imp_?GetTypeLibCache@CCmdTarget@@UEAAPEAVCTypeLibCache@@XZ 0000000140060f38     mfc100ud:mfc100ud.dll
 0005:00002f40       __imp_?GetTypeInfoCount@CCmdTarget@@UEAAIXZ 0000000140060f40     mfc100ud:mfc100ud.dll
 0005:00002f48       __imp_?GetDispatchIID@CCmdTarget@@UEAAHPEAU_GUID@@@Z 0000000140060f48     mfc100ud:mfc100ud.dll
 0005:00002f50       __imp_?IsInvokeAllowed@CCmdTarget@@UEAAHJ@Z 0000000140060f50     mfc100ud:mfc100ud.dll
 0005:00002f58       __imp_?OnFinalRelease@CWnd@@UEAAXXZ 0000000140060f58     mfc100ud:mfc100ud.dll
 0005:00002f60       __imp_?OnCmdMsg@CDialog@@UEAAHIHPEAXPEAUAFX_CMDHANDLERINFO@@@Z 0000000140060f60     mfc100ud:mfc100ud.dll
 0005:00002f68       __imp_?Dump@CPropertyPage@@UEBAXAEAVCDumpContext@@@Z 0000000140060f68     mfc100ud:mfc100ud.dll
 0005:00002f70       __imp_?AssertValid@CPropertyPage@@UEBAXXZ 0000000140060f70     mfc100ud:mfc100ud.dll
 0005:00002f78       __imp_?Serialize@CObject@@UEAAXAEAVCArchive@@@Z 0000000140060f78     mfc100ud:mfc100ud.dll
 0005:00002f80       __imp_??0CPropertyPage@@QEAA@IIK@Z 0000000140060f80     mfc100ud:mfc100ud.dll
 0005:00002f88       __imp_??0?$CStringT@_WV?$StrTraitMFC_DLL@_WV?$ChTraitsCRT@_W@ATL@@@@@ATL@@QEAA@XZ 0000000140060f88     mfc100ud:mfc100ud.dll
 0005:00002f90       __imp_??4?$CStringT@_WV?$StrTraitMFC_DLL@_WV?$ChTraitsCRT@_W@ATL@@@@@ATL@@QEAAAEAV01@PEB_W@Z 0000000140060f90     mfc100ud:mfc100ud.dll
 0005:00002f98       __imp_??1CPropertyPage@@UEAA@XZ 0000000140060f98     mfc100ud:mfc100ud.dll
 0005:00002fa0       __imp_??1?$CStringT@_WV?$StrTraitMFC_DLL@_WV?$ChTraitsCRT@_W@ATL@@@@@ATL@@QEAA@XZ 0000000140060fa0     mfc100ud:mfc100ud.dll
 0005:00002fa8       __imp_?GetThisClass@CPropertyPage@@SAPEAUCRuntimeClass@@XZ 0000000140060fa8     mfc100ud:mfc100ud.dll
 0005:00002fb0       __imp_??3@YAXPEAX@Z        0000000140060fb0     mfc100ud:mfc100ud.dll
 0005:00002fb8       __imp_?GetRuntimeClass@CDialogEx@@UEBAPEAUCRuntimeClass@@XZ 0000000140060fb8     mfc100ud:mfc100ud.dll
 0005:00002fc0       __imp_?AfxWinMain@@YAHPEAUHINSTANCE__@@0PEA_WH@Z 0000000140060fc0     mfc100ud:mfc100ud.dll
 0005:00002fc8       __imp_?AfxGetModuleState@@YAPEAVAFX_MODULE_STATE@@XZ 0000000140060fc8     mfc100ud:mfc100ud.dll
 0005:00002fd0       __imp_?GetBuffer@?$CSimpleStringT@_W$00@ATL@@QEAAPEA_WH@Z 0000000140060fd0     mfc100ud:mfc100ud.dll
 0005:00002fd8       __imp_?ReleaseBuffer@?$CSimpleStringT@_W$00@ATL@@QEAAXH@Z 0000000140060fd8     mfc100ud:mfc100ud.dll
 0005:00002fe0       __imp_?ReverseFind@?$CStringT@_WV?$StrTraitMFC_DLL@_WV?$ChTraitsCRT@_W@ATL@@@@@ATL@@QEBAH_W@Z 0000000140060fe0     mfc100ud:mfc100ud.dll
 0005:00002fe8       __imp_?Left@?$CStringT@_WV?$StrTraitMFC_DLL@_WV?$ChTraitsCRT@_W@ATL@@@@@ATL@@QEBA?AV12@H@Z 0000000140060fe8     mfc100ud:mfc100ud.dll
 0005:00002ff0       \177mfc100ud_NULL_THUNK_DATA 0000000140060ff0     mfc100ud:mfc100ud.dll

 entry point at        0001:0000e7c0

